

Microchip MPLAB XC8 Assembler V2.46 build 20240104201356 
                                                                                               Sun Oct 13 18:47:45 2024

Microchip MPLAB XC8 C Compiler v2.46 (Free license) build 20240104201356 Og1 
     1                           	processor	16F628A
     2                           	pagewidth 120
     3                           	opt	flic
     4                           	psect	idataBANK0,global,class=CODE,delta=2,noexec
     5                           	psect	strings,global,class=STRING,delta=2,noexec
     6                           	psect	cinit,global,class=CODE,merge=1,delta=2
     7                           	psect	bssCOMMON,global,class=COMMON,space=1,delta=1,noexec
     8                           	psect	bssBANK0,global,class=BANK0,space=1,delta=1,noexec
     9                           	psect	dataBANK0,global,class=BANK0,space=1,delta=1,noexec
    10                           	psect	clrtext,global,class=CODE,delta=2
    11                           	psect	cstackCOMMON,global,class=COMMON,space=1,delta=1,noexec
    12                           	psect	cstackBANK0,global,class=BANK0,space=1,delta=1,noexec
    13                           	psect	maintext,global,class=CODE,split=1,delta=2
    14                           	psect	text1,local,class=CODE,merge=1,delta=2
    15                           	psect	text2,local,class=CODE,merge=1,delta=2
    16                           	psect	text3,local,class=CODE,merge=1,delta=2
    17                           	psect	text4,local,class=CODE,merge=1,delta=2
    18                           	psect	text5,local,class=CODE,merge=1,delta=2
    19                           	psect	text6,local,class=CODE,merge=1,delta=2
    20                           	psect	text7,local,class=CODE,merge=1,delta=2
    21                           	psect	text8,local,class=CODE,merge=1,delta=2
    22                           	psect	text9,local,class=CODE,merge=1,delta=2
    23                           	psect	text10,local,class=CODE,merge=1,delta=2,group=1
    24                           	psect	text11,local,class=CODE,merge=1,delta=2,group=1
    25                           	psect	text12,local,class=CODE,merge=1,delta=2
    26                           	psect	intentry,global,class=CODE,delta=2
    27                           	psect	text13,local,class=CODE,merge=1,delta=2,group=2
    28                           	psect	text14,local,class=CODE,merge=1,delta=2
    29                           	psect	text15,local,class=CODE,merge=1,delta=2
    30                           	psect	idloc,global,abs,ovrld,class=IDLOC,space=5,delta=2,noexec
    31                           	psect	config,global,abs,ovrld,class=CONFIG,space=4,delta=2,noexec
    32                           	dabs	1,0x7E,2
    33     0000                     
    34                           ; Generated 12/10/2023 GMT
    35                           ; 
    36                           ; Copyright © 2023, Microchip Technology Inc. and its subsidiaries ("Microchip")
    37                           ; All rights reserved.
    38                           ; 
    39                           ; This software is developed by Microchip Technology Inc. and its subsidiaries ("Microch
      +                          ip").
    40                           ; 
    41                           ; Redistribution and use in source and binary forms, with or without modification, are
    42                           ; permitted provided that the following conditions are met:
    43                           ; 
    44                           ;     1. Redistributions of source code must retain the above copyright notice, this lis
      +                          t of
    45                           ;        conditions and the following disclaimer.
    46                           ; 
    47                           ;     2. Redistributions in binary form must reproduce the above copyright notice, this 
      +                          list
    48                           ;        of conditions and the following disclaimer in the documentation and/or other
    49                           ;        materials provided with the distribution. Publication is not required when
    50                           ;        this file is used in an embedded application.
    51                           ; 
    52                           ;     3. Microchip's name may not be used to endorse or promote products derived from th
      +                          is
    53                           ;        software without specific prior written permission.
    54                           ; 
    55                           ; THIS SOFTWARE IS PROVIDED BY MICROCHIP "AS IS" AND ANY EXPRESS OR IMPLIED WARRANTIES,
    56                           ; INCLUDING, BUT NOT LIMITED TO, THE IMPLIED WARRANTIES OF MERCHANTABILITY AND FITNESS F
      +                          OR
    57                           ; PURPOSE ARE DISCLAIMED.  IN NO EVENT SHALL MICROCHIP BE LIABLE FOR ANY DIRECT, INDIREC
      +                          T,
    58                           ; INCIDENTAL, SPECIAL, EXEMPLARY, OR CONSEQUENTIAL DAMAGES (INCLUDING BUT NOT LIMITED TO
    59                           ; PROCUREMENT OF SUBSTITUTE GOODS OR SERVICES; LOSS OF USE, DATA OR PROFITS; OR BUSINESS
    60                           ; INTERRUPTION) HOWSOEVER CAUSED AND ON ANY THEORY OF LIABILITY, WHETHER IN CONTRACT, ST
      +                          RICT
    61                           ; LIABILITY, OR TORT (INCLUDING NEGLIGENCE OR OTHERWISE) ARISING IN ANY WAY OUT OF THE U
      +                          SE OF
    62                           ; THIS SOFTWARE, EVEN IF ADVISED OF THE POSSIBILITY OF SUCH DAMAGE.
    63                           ; 
    64                           ; 
    65                           ; Code-generator required, PIC16F628A Definitions
    66                           ; 
    67                           ; SFR Addresses
    68     0000                     	;# 
    69     0001                     	;# 
    70     0002                     	;# 
    71     0003                     	;# 
    72     0004                     	;# 
    73     0005                     	;# 
    74     0006                     	;# 
    75     000A                     	;# 
    76     000B                     	;# 
    77     000C                     	;# 
    78     000E                     	;# 
    79     000E                     	;# 
    80     000F                     	;# 
    81     0010                     	;# 
    82     0011                     	;# 
    83     0012                     	;# 
    84     0015                     	;# 
    85     0015                     	;# 
    86     0016                     	;# 
    87     0017                     	;# 
    88     0018                     	;# 
    89     0019                     	;# 
    90     001A                     	;# 
    91     001F                     	;# 
    92     0081                     	;# 
    93     0085                     	;# 
    94     0086                     	;# 
    95     008C                     	;# 
    96     008E                     	;# 
    97     0092                     	;# 
    98     0098                     	;# 
    99     0099                     	;# 
   100     009A                     	;# 
   101     009B                     	;# 
   102     009C                     	;# 
   103     009D                     	;# 
   104     009F                     	;# 
   105     0000                     	;# 
   106     0001                     	;# 
   107     0002                     	;# 
   108     0003                     	;# 
   109     0004                     	;# 
   110     0005                     	;# 
   111     0006                     	;# 
   112     000A                     	;# 
   113     000B                     	;# 
   114     000C                     	;# 
   115     000E                     	;# 
   116     000E                     	;# 
   117     000F                     	;# 
   118     0010                     	;# 
   119     0011                     	;# 
   120     0012                     	;# 
   121     0015                     	;# 
   122     0015                     	;# 
   123     0016                     	;# 
   124     0017                     	;# 
   125     0018                     	;# 
   126     0019                     	;# 
   127     001A                     	;# 
   128     001F                     	;# 
   129     0081                     	;# 
   130     0085                     	;# 
   131     0086                     	;# 
   132     008C                     	;# 
   133     008E                     	;# 
   134     0092                     	;# 
   135     0098                     	;# 
   136     0099                     	;# 
   137     009A                     	;# 
   138     009B                     	;# 
   139     009C                     	;# 
   140     009D                     	;# 
   141     009F                     	;# 
   142     0000                     	;# 
   143     0001                     	;# 
   144     0002                     	;# 
   145     0003                     	;# 
   146     0004                     	;# 
   147     0005                     	;# 
   148     0006                     	;# 
   149     000A                     	;# 
   150     000B                     	;# 
   151     000C                     	;# 
   152     000E                     	;# 
   153     000E                     	;# 
   154     000F                     	;# 
   155     0010                     	;# 
   156     0011                     	;# 
   157     0012                     	;# 
   158     0015                     	;# 
   159     0015                     	;# 
   160     0016                     	;# 
   161     0017                     	;# 
   162     0018                     	;# 
   163     0019                     	;# 
   164     001A                     	;# 
   165     001F                     	;# 
   166     0081                     	;# 
   167     0085                     	;# 
   168     0086                     	;# 
   169     008C                     	;# 
   170     008E                     	;# 
   171     0092                     	;# 
   172     0098                     	;# 
   173     0099                     	;# 
   174     009A                     	;# 
   175     009B                     	;# 
   176     009C                     	;# 
   177     009D                     	;# 
   178     009F                     	;# 
   179     0000                     	;# 
   180     0001                     	;# 
   181     0002                     	;# 
   182     0003                     	;# 
   183     0004                     	;# 
   184     0005                     	;# 
   185     0006                     	;# 
   186     000A                     	;# 
   187     000B                     	;# 
   188     000C                     	;# 
   189     000E                     	;# 
   190     000E                     	;# 
   191     000F                     	;# 
   192     0010                     	;# 
   193     0011                     	;# 
   194     0012                     	;# 
   195     0015                     	;# 
   196     0015                     	;# 
   197     0016                     	;# 
   198     0017                     	;# 
   199     0018                     	;# 
   200     0019                     	;# 
   201     001A                     	;# 
   202     001F                     	;# 
   203     0081                     	;# 
   204     0085                     	;# 
   205     0086                     	;# 
   206     008C                     	;# 
   207     008E                     	;# 
   208     0092                     	;# 
   209     0098                     	;# 
   210     0099                     	;# 
   211     009A                     	;# 
   212     009B                     	;# 
   213     009C                     	;# 
   214     009D                     	;# 
   215     009F                     	;# 
   216                           
   217                           	psect	idataBANK0
   218     048D                     __pidataBANK0:
   219                           
   220                           ;initializer for _P
   221     048D  3454               	retlw	84
   222     001A                     _RCREG	set	26
   223     0019                     _TXREG	set	25
   224     0018                     _RCSTAbits	set	24
   225     000B                     _INTCONbits	set	11
   226     001F                     _CMCON	set	31
   227     0006                     _PORTB	set	6
   228     0005                     _PORTA	set	5
   229     0006                     _PORTBbits	set	6
   230     0005                     _PORTAbits	set	5
   231     000C                     _PIR1bits	set	12
   232     0099                     _SPBRG	set	153
   233     0098                     _TXSTAbits	set	152
   234     0086                     _TRISBbits	set	134
   235     008C                     _PIE1bits	set	140
   236     0081                     _OPTION_REGbits	set	129
   237     0086                     _TRISB	set	134
   238     0085                     _TRISA	set	133
   239                           
   240                           	psect	strings
   241     0339                     __pstrings:
   242     0339                     stringtab:
   243     0339                     __stringtab:
   244     0339                     stringcode:	
   245                           ;	String table - string pointers are 1 byte each
   246                           
   247     0339                     stringdir:
   248     0339  3003               	movlw	high stringdir
   249     033A  008A               	movwf	10
   250     033B  0804               	movf	4,w
   251     033C  0A84               	incf	4,f
   252     033D  0782               	addwf	2,f
   253     033E                     __stringbase:
   254     033E  3400               	retlw	0
   255     033F                     __end_of__stringtab:
   256     033F                     STR_7:
   257     033F  3453               	retlw	83	;'S'
   258     0340  3441               	retlw	65	;'A'
   259     0341  344C               	retlw	76	;'L'
   260     0342  3449               	retlw	73	;'I'
   261     0343  3444               	retlw	68	;'D'
   262     0344  3441               	retlw	65	;'A'
   263     0345  345F               	retlw	95	;'_'
   264     0346  3442               	retlw	66	;'B'
   265     0347  344C               	retlw	76	;'L'
   266     0348  3445               	retlw	69	;'E'
   267     0349  345F               	retlw	95	;'_'
   268     034A  3431               	retlw	49	;'1'
   269     034B  345F               	retlw	95	;'_'
   270     034C  344F               	retlw	79	;'O'
   271     034D  3446               	retlw	70	;'F'
   272     034E  3446               	retlw	70	;'F'
   273     034F  3400               	retlw	0
   274     0350                     STR_5:
   275     0350  3453               	retlw	83	;'S'
   276     0351  3441               	retlw	65	;'A'
   277     0352  344C               	retlw	76	;'L'
   278     0353  3449               	retlw	73	;'I'
   279     0354  3444               	retlw	68	;'D'
   280     0355  3441               	retlw	65	;'A'
   281     0356  345F               	retlw	95	;'_'
   282     0357  3442               	retlw	66	;'B'
   283     0358  344C               	retlw	76	;'L'
   284     0359  3445               	retlw	69	;'E'
   285     035A  345F               	retlw	95	;'_'
   286     035B  3431               	retlw	49	;'1'
   287     035C  345F               	retlw	95	;'_'
   288     035D  344F               	retlw	79	;'O'
   289     035E  344E               	retlw	78	;'N'
   290     035F  3400               	retlw	0
   291     0360                     STR_3:
   292     0360  3442               	retlw	66	;'B'
   293     0361  344C               	retlw	76	;'L'
   294     0362  3445               	retlw	69	;'E'
   295     0363  345F               	retlw	95	;'_'
   296     0364  344E               	retlw	78	;'N'
   297     0365  344F               	retlw	79	;'O'
   298     0366  344B               	retlw	75	;'K'
   299     0367  3400               	retlw	0
   300     0368                     STR_1:
   301     0368  3442               	retlw	66	;'B'
   302     0369  344C               	retlw	76	;'L'
   303     036A  3445               	retlw	69	;'E'
   304     036B  345F               	retlw	95	;'_'
   305     036C  344F               	retlw	79	;'O'
   306     036D  344B               	retlw	75	;'K'
   307     036E  3400               	retlw	0
   308     036F                     STR_9:
   309     036F  340D               	retlw	13
   310     0370  340A               	retlw	10
   311     0371  3400               	retlw	0
   312     036F                     
   313                           	psect	cinit
   314     000F                     start_initialization:	
   315                           ; #config settings
   316                           
   317     000F                     __initialization:
   318                           
   319                           ; Initialize objects allocated to BANK0
   320     000F  248D               	fcall	__pidataBANK0	;fetch initializer
   321     0010  00DF               	movwf	__pdataBANK0& (0+127)
   322                           
   323                           ; Clear objects allocated to BANK0
   324     0011  1383               	bcf	3,7	;select IRP bank0
   325     0012  3020               	movlw	low __pbssBANK0
   326     0013  0084               	movwf	4
   327     0014  3051               	movlw	low (__pbssBANK0+49)
   328     0015  247E               	fcall	clear_ram0
   329                           
   330                           ; Clear objects allocated to COMMON
   331     0016  01FB               	clrf	__pbssCOMMON& (0+127)
   332     0017  01FC               	clrf	(__pbssCOMMON+1)& (0+127)
   333     0018  01FD               	clrf	(__pbssCOMMON+2)& (0+127)
   334     0019                     end_of_initialization:	
   335                           ;End of C runtime variable initialization code
   336                           
   337     0019                     __end_of__initialization:
   338     0019  0183               	clrf	3
   339     001A  292F               	ljmp	_main	;jump to C main() function
   340                           
   341                           	psect	bssCOMMON
   342     007B                     __pbssCOMMON:
   343     007B                     _bit1:
   344     007B                     	ds	1
   345     007C                     _bit0:
   346     007C                     	ds	1
   347     007D                     _variable2:
   348     007D                     	ds	1
   349                           
   350                           	psect	bssBANK0
   351     0020                     __pbssBANK0:
   352     0020                     _TEMP:
   353     0020                     	ds	1
   354     0021                     _RXDATO:
   355     0021                     	ds	1
   356     0022                     _C:
   357     0022                     	ds	1
   358     0023                     _B:
   359     0023                     	ds	1
   360     0024                     _unidadM:
   361     0024                     	ds	1
   362     0025                     _centena:
   363     0025                     	ds	1
   364     0026                     _decena:
   365     0026                     	ds	1
   366     0027                     _unidad:
   367     0027                     	ds	1
   368     0028                     _DATO:
   369     0028                     	ds	1
   370     0029                     _DATO_LSB_2:
   371     0029                     	ds	1
   372     002A                     _DATO_LSB_1:
   373     002A                     	ds	1
   374     002B                     _DATO_MSB_2:
   375     002B                     	ds	1
   376     002C                     _DATO_MSB_1:
   377     002C                     	ds	1
   378     002D                     _DATO_MSB:
   379     002D                     	ds	1
   380     002E                     _DATO_LSB:
   381     002E                     	ds	1
   382     002F                     _variable:
   383     002F                     	ds	1
   384     0030                     _bit7:
   385     0030                     	ds	1
   386     0031                     _bit6:
   387     0031                     	ds	1
   388     0032                     _bit5:
   389     0032                     	ds	1
   390     0033                     _bit4:
   391     0033                     	ds	1
   392     0034                     _bit3:
   393     0034                     	ds	1
   394     0035                     _bit2:
   395     0035                     	ds	1
   396     0036                     _DHT11:
   397     0036                     	ds	1
   398     0037                     _H2:
   399     0037                     	ds	1
   400     0038                     _T2:
   401     0038                     	ds	1
   402     0039                     _T1:
   403     0039                     	ds	1
   404     003A                     _H1:
   405     003A                     	ds	1
   406     003B                     _i:
   407     003B                     	ds	1
   408     003C                     _cadena:
   409     003C                     	ds	20
   410     0050                     _X:
   411     0050                     	ds	1
   412                           
   413                           	psect	dataBANK0
   414     005F                     __pdataBANK0:
   415     005F                     _P:
   416     005F                     	ds	1
   417                           
   418                           	psect	clrtext
   419     047E                     clear_ram0:	
   420                           ;	Called with FSR containing the base address, and
   421                           ;	W with the last address+1
   422                           
   423     047E  0064               	clrwdt	;clear the watchdog before getting into this loop
   424     047F                     clrloop0:
   425     047F  0180               	clrf	0	;clear RAM location pointed to by FSR
   426     0480  0A84               	incf	4,f	;increment pointer
   427     0481  0604               	xorwf	4,w	;XOR with final address
   428     0482  1903               	btfsc	3,2	;have we reached the end yet?
   429     0483  3400               	retlw	0	;all done for this memory range, return
   430     0484  0604               	xorwf	4,w	;XOR again to restore value
   431     0485  2C7F               	goto	clrloop0	;do the next byte
   432                           
   433                           	psect	cstackCOMMON
   434     0070                     __pcstackCOMMON:
   435     0070                     ?_Uart_Read_String:
   436     0070                     ?_DHT11_READ_CLOCK:	
   437                           ; 1 bytes @ 0x0
   438                           
   439     0070                     ?_CONVERTIDOR__HEX_ASCII:	
   440                           ; 1 bytes @ 0x0
   441                           
   442     0070                     ?_Uart_Send_Char:	
   443                           ; 1 bytes @ 0x0
   444                           
   445     0070                     ?_Uart_Send_String:	
   446                           ; 1 bytes @ 0x0
   447                           
   448     0070                     ?_RX_DATO:	
   449                           ; 1 bytes @ 0x0
   450                           
   451     0070                     ?_main:	
   452                           ; 1 bytes @ 0x0
   453                           
   454     0070                     ?_Uart_Read:	
   455                           ; 1 bytes @ 0x0
   456                           
   457     0070                     ??_Uart_Read:	
   458                           ; 1 bytes @ 0x0
   459                           
   460     0070                     ?_DHT11_Inicio:	
   461                           ; 1 bytes @ 0x0
   462                           
   463     0070                     ?_DHT11_Res:	
   464                           ; 1 bytes @ 0x0
   465                           
   466     0070                     ?_DHT11_READ_STAR:	
   467                           ; 1 bytes @ 0x0
   468                           
   469     0070                     ?_DHT11_READ:	
   470                           ; 1 bytes @ 0x0
   471                           
   472     0070                     ?_strcmp:	
   473                           ; 1 bytes @ 0x0
   474                           
   475     0070                     strcmp@r:	
   476                           ; 2 bytes @ 0x0
   477                           
   478     0070                     Uart_Read_String@s_buf:	
   479                           ; 1 bytes @ 0x0
   480                           
   481                           
   482                           ; 2 bytes @ 0x0
   483     0070                     	ds	2
   484     0072                     ??_Uart_Read_String:
   485     0072                     ??_strcmp:	
   486                           ; 1 bytes @ 0x2
   487                           
   488                           
   489                           ; 1 bytes @ 0x2
   490     0072                     	ds	1
   491     0073                     Uart_Read_String@c:
   492                           
   493                           ; 1 bytes @ 0x3
   494     0073                     	ds	1
   495     0074                     Uart_Read_String@Buf:
   496     0074                     strcmp@l:	
   497                           ; 1 bytes @ 0x4
   498                           
   499                           
   500                           ; 1 bytes @ 0x4
   501     0074                     	ds	1
   502     0075                     Uart_Read_String@cont_buf:
   503                           
   504                           ; 2 bytes @ 0x5
   505     0075                     	ds	2
   506     0077                     ??_RX_DATO:
   507                           
   508                           ; 1 bytes @ 0x7
   509     0077                     	ds	4
   510                           
   511                           	psect	cstackBANK0
   512     0051                     __pcstackBANK0:
   513     0051                     ?_Uart_Init:
   514     0051                     ??_Uart_Send_Char:	
   515                           ; 1 bytes @ 0x0
   516                           
   517     0051                     ??_DHT11_Inicio:	
   518                           ; 1 bytes @ 0x0
   519                           
   520     0051                     ??_DHT11_Res:	
   521                           ; 1 bytes @ 0x0
   522                           
   523     0051                     ??_DHT11_READ_STAR:	
   524                           ; 1 bytes @ 0x0
   525                           
   526     0051                     ??_DHT11_READ:	
   527                           ; 1 bytes @ 0x0
   528                           
   529     0051                     ?___bmul:	
   530                           ; 1 bytes @ 0x0
   531                           
   532     0051                     ?___awdiv:	
   533                           ; 1 bytes @ 0x0
   534                           
   535     0051                     Uart_Send_Char@INFO:	
   536                           ; 2 bytes @ 0x0
   537                           
   538     0051                     ___bmul@multiplicand:	
   539                           ; 1 bytes @ 0x0
   540                           
   541     0051                     Uart_Init@baudios:	
   542                           ; 1 bytes @ 0x0
   543                           
   544     0051                     ___awdiv@divisor:	
   545                           ; 2 bytes @ 0x0
   546                           
   547                           
   548                           ; 2 bytes @ 0x0
   549     0051                     	ds	1
   550     0052                     ??_Uart_Send_String:
   551     0052                     ??___bmul:	
   552                           ; 1 bytes @ 0x1
   553                           
   554     0052                     Uart_Send_String@W:	
   555                           ; 1 bytes @ 0x1
   556                           
   557     0052                     DHT11_READ@variable:	
   558                           ; 1 bytes @ 0x1
   559                           
   560     0052                     ___bmul@product:	
   561                           ; 1 bytes @ 0x1
   562                           
   563                           
   564                           ; 1 bytes @ 0x1
   565     0052                     	ds	1
   566     0053                     ??_Uart_Init:
   567     0053                     ??_DHT11_READ_CLOCK:	
   568                           ; 1 bytes @ 0x2
   569                           
   570     0053                     Uart_Send_String@INFO:	
   571                           ; 1 bytes @ 0x2
   572                           
   573     0053                     ___bmul@multiplier:	
   574                           ; 1 bytes @ 0x2
   575                           
   576     0053                     ___awdiv@dividend:	
   577                           ; 1 bytes @ 0x2
   578                           
   579                           
   580                           ; 2 bytes @ 0x2
   581     0053                     	ds	2
   582     0055                     ??___awdiv:
   583     0055                     ___awdiv@counter:	
   584                           ; 1 bytes @ 0x4
   585                           
   586                           
   587                           ; 1 bytes @ 0x4
   588     0055                     	ds	1
   589     0056                     ___awdiv@sign:
   590                           
   591                           ; 1 bytes @ 0x5
   592     0056                     	ds	1
   593     0057                     ___awdiv@quotient:
   594                           
   595                           ; 2 bytes @ 0x6
   596     0057                     	ds	2
   597     0059                     ??_CONVERTIDOR__HEX_ASCII:
   598                           
   599                           ; 1 bytes @ 0x8
   600     0059                     	ds	2
   601     005B                     CONVERTIDOR__HEX_ASCII@CONVER_DATO:
   602                           
   603                           ; 1 bytes @ 0xA
   604     005B                     	ds	1
   605     005C                     ??_main:
   606                           
   607                           ; 1 bytes @ 0xB
   608     005C                     	ds	3
   609                           
   610                           	psect	maintext
   611     012F                     __pmaintext:	
   612 ;;
   613 ;;Main: autosize = 0, tempsize = 3, incstack = 0, save=0
   614 ;;
   615 ;; *************** function _main *****************
   616 ;; Defined at:
   617 ;;		line 61 in file "main.c"
   618 ;; Parameters:    Size  Location     Type
   619 ;;		None
   620 ;; Auto vars:     Size  Location     Type
   621 ;;		None
   622 ;; Return value:  Size  Location     Type
   623 ;;                  1    wreg      void 
   624 ;; Registers used:
   625 ;;		wreg, fsr0l, fsr0h, status,2, status,0, btemp+1, pclath, cstack
   626 ;; Tracked objects:
   627 ;;		On entry : B00/0
   628 ;;		On exit  : 0/0
   629 ;;		Unchanged: 0/0
   630 ;; Data sizes:     COMMON   BANK0   BANK1   BANK2
   631 ;;      Params:         0       0       0       0
   632 ;;      Locals:         0       0       0       0
   633 ;;      Temps:          0       3       0       0
   634 ;;      Totals:         0       3       0       0
   635 ;;Total ram usage:        3 bytes
   636 ;; Hardware stack levels required when called: 6
   637 ;; This function calls:
   638 ;;		_CONVERTIDOR__HEX_ASCII
   639 ;;		_DHT11_READ_CLOCK
   640 ;;		_Uart_Init
   641 ;;		_Uart_Send_Char
   642 ;;		_Uart_Send_String
   643 ;; This function is called by:
   644 ;;		Startup code after reset
   645 ;; This function uses a non-reentrant model
   646 ;;
   647                           
   648     012F                     _main:	
   649                           ;psect for function _main
   650                           
   651     012F                     l1695:	
   652                           ;incstack = 0
   653                           ; Regs used in _main: [wreg-fsr0h+status,2+status,0+btemp+1+pclath+cstack]
   654                           
   655                           
   656                           ;main.c: 63:     TRISA = 0;
   657     012F  1683               	bsf	3,5	;RP0=1, select bank1
   658     0130  1303               	bcf	3,6	;RP1=0, select bank1
   659     0131  0185               	clrf	5	;volatile
   660     0132                     l1697:
   661                           
   662                           ;main.c: 64:     TRISB = 0x12;
   663     0132  3012               	movlw	18
   664     0133  0086               	movwf	6	;volatile
   665     0134                     l1699:
   666                           
   667                           ;main.c: 65:     PORTA = 0, PORTB = 0;
   668     0134  1283               	bcf	3,5	;RP0=0, select bank0
   669     0135  1303               	bcf	3,6	;RP1=0, select bank0
   670     0136  0185               	clrf	5	;volatile
   671     0137                     l1701:
   672     0137  0186               	clrf	6	;volatile
   673     0138                     l1703:
   674                           
   675                           ;main.c: 66:     CMCON = 0x07;
   676     0138  3007               	movlw	7
   677     0139  009F               	movwf	31	;volatile
   678     013A                     l1705:
   679                           
   680                           ;main.c: 67:     OPTION_REGbits.PSA = 0, OPTION_REGbits.PS0 = 0,OPTION_REGbits.PS1 = 0,O
      +                          PTION_REGbits.PS2 = 0;
   681     013A  1683               	bsf	3,5	;RP0=1, select bank1
   682     013B  1303               	bcf	3,6	;RP1=0, select bank1
   683     013C  1181               	bcf	1,3	;volatile
   684     013D                     l1707:
   685     013D  1001               	bcf	1,0	;volatile
   686     013E                     l1709:
   687     013E  1081               	bcf	1,1	;volatile
   688     013F                     l1711:
   689     013F  1101               	bcf	1,2	;volatile
   690     0140                     l1713:
   691                           
   692                           ;main.c: 68:     Uart_Init(9600);
   693     0140  3080               	movlw	128
   694     0141  1283               	bcf	3,5	;RP0=0, select bank0
   695     0142  1303               	bcf	3,6	;RP1=0, select bank0
   696     0143  00D1               	movwf	Uart_Init@baudios
   697     0144  3025               	movlw	37
   698     0145  00D2               	movwf	Uart_Init@baudios+1
   699     0146  23EF               	fcall	_Uart_Init
   700     0147                     l1715:
   701                           
   702                           ;main.c: 69:     PORTAbits.RA7 = 1;
   703     0147  1283               	bcf	3,5	;RP0=0, select bank0
   704     0148  1303               	bcf	3,6	;RP1=0, select bank0
   705     0149  1785               	bsf	5,7	;volatile
   706     014A                     l1717:
   707                           
   708                           ;main.c: 70:     PORTAbits.RA6 = 0;
   709     014A  1305               	bcf	5,6	;volatile
   710     014B                     l1719:
   711                           
   712                           ;main.c: 71:     PORTBbits.RB5 = 0;
   713     014B  1286               	bcf	6,5	;volatile
   714     014C                     l1721:
   715                           
   716                           ;main.c: 72:     PORTBbits.RB3 = 0;
   717     014C  1186               	bcf	6,3	;volatile
   718     014D                     l1723:
   719                           
   720                           ;main.c: 73:     _delay((unsigned long)((500)*(4000000/4000.0)));
   721     014D  3003               	movlw	3
   722     014E  1283               	bcf	3,5	;RP0=0, select bank0
   723     014F  1303               	bcf	3,6	;RP1=0, select bank0
   724     0150  00DE               	movwf	??_main+2
   725     0151  308A               	movlw	138
   726     0152  00DD               	movwf	??_main+1
   727     0153  3055               	movlw	85
   728     0154  00DC               	movwf	??_main
   729     0155                     u1197:
   730     0155  0BDC               	decfsz	??_main,f
   731     0156  2955               	goto	u1197
   732     0157  0BDD               	decfsz	??_main+1,f
   733     0158  2955               	goto	u1197
   734     0159  0BDE               	decfsz	??_main+2,f
   735     015A  2955               	goto	u1197
   736     015B  0000               	nop
   737     015C                     l1725:
   738                           
   739                           ;main.c: 74:     PORTAbits.RA7 = 0;
   740     015C  1283               	bcf	3,5	;RP0=0, select bank0
   741     015D  1303               	bcf	3,6	;RP1=0, select bank0
   742     015E  1385               	bcf	5,7	;volatile
   743     015F                     l1727:
   744                           
   745                           ;main.c: 75:     PORTAbits.RA6 = 1;
   746     015F  1705               	bsf	5,6	;volatile
   747     0160                     l1729:
   748                           
   749                           ;main.c: 76:     PORTBbits.RB5 = 0;
   750     0160  1286               	bcf	6,5	;volatile
   751     0161                     l1731:
   752                           
   753                           ;main.c: 77:     PORTBbits.RB3 = 0;
   754     0161  1186               	bcf	6,3	;volatile
   755     0162                     l1733:
   756                           
   757                           ;main.c: 78:     _delay((unsigned long)((500)*(4000000/4000.0)));
   758     0162  3003               	movlw	3
   759     0163  1283               	bcf	3,5	;RP0=0, select bank0
   760     0164  1303               	bcf	3,6	;RP1=0, select bank0
   761     0165  00DE               	movwf	??_main+2
   762     0166  308A               	movlw	138
   763     0167  00DD               	movwf	??_main+1
   764     0168  3055               	movlw	85
   765     0169  00DC               	movwf	??_main
   766     016A                     u1207:
   767     016A  0BDC               	decfsz	??_main,f
   768     016B  296A               	goto	u1207
   769     016C  0BDD               	decfsz	??_main+1,f
   770     016D  296A               	goto	u1207
   771     016E  0BDE               	decfsz	??_main+2,f
   772     016F  296A               	goto	u1207
   773     0170  0000               	nop
   774     0171                     l1735:
   775                           
   776                           ;main.c: 79:     PORTAbits.RA7 = 0;
   777     0171  1283               	bcf	3,5	;RP0=0, select bank0
   778     0172  1303               	bcf	3,6	;RP1=0, select bank0
   779     0173  1385               	bcf	5,7	;volatile
   780     0174                     l1737:
   781                           
   782                           ;main.c: 80:     PORTAbits.RA6 = 0;
   783     0174  1305               	bcf	5,6	;volatile
   784     0175                     l1739:
   785                           
   786                           ;main.c: 81:     PORTBbits.RB5 = 1;
   787     0175  1686               	bsf	6,5	;volatile
   788     0176                     l1741:
   789                           
   790                           ;main.c: 82:     PORTBbits.RB3 = 0;
   791     0176  1186               	bcf	6,3	;volatile
   792     0177                     l1743:
   793                           
   794                           ;main.c: 83:     _delay((unsigned long)((500)*(4000000/4000.0)));
   795     0177  3003               	movlw	3
   796     0178  1283               	bcf	3,5	;RP0=0, select bank0
   797     0179  1303               	bcf	3,6	;RP1=0, select bank0
   798     017A  00DE               	movwf	??_main+2
   799     017B  308A               	movlw	138
   800     017C  00DD               	movwf	??_main+1
   801     017D  3055               	movlw	85
   802     017E  00DC               	movwf	??_main
   803     017F                     u1217:
   804     017F  0BDC               	decfsz	??_main,f
   805     0180  297F               	goto	u1217
   806     0181  0BDD               	decfsz	??_main+1,f
   807     0182  297F               	goto	u1217
   808     0183  0BDE               	decfsz	??_main+2,f
   809     0184  297F               	goto	u1217
   810     0185  0000               	nop
   811     0186                     l1745:
   812                           
   813                           ;main.c: 84:     PORTAbits.RA7 = 0;
   814     0186  1283               	bcf	3,5	;RP0=0, select bank0
   815     0187  1303               	bcf	3,6	;RP1=0, select bank0
   816     0188  1385               	bcf	5,7	;volatile
   817     0189                     l1747:
   818                           
   819                           ;main.c: 85:     PORTAbits.RA6 = 0;
   820     0189  1305               	bcf	5,6	;volatile
   821     018A                     l1749:
   822                           
   823                           ;main.c: 86:     PORTBbits.RB5 = 0;
   824     018A  1286               	bcf	6,5	;volatile
   825     018B                     l1751:
   826                           
   827                           ;main.c: 87:     PORTBbits.RB3 = 1;
   828     018B  1586               	bsf	6,3	;volatile
   829     018C                     l1753:
   830                           
   831                           ;main.c: 88:     _delay((unsigned long)((500)*(4000000/4000.0)));
   832     018C  3003               	movlw	3
   833     018D  1283               	bcf	3,5	;RP0=0, select bank0
   834     018E  1303               	bcf	3,6	;RP1=0, select bank0
   835     018F  00DE               	movwf	??_main+2
   836     0190  308A               	movlw	138
   837     0191  00DD               	movwf	??_main+1
   838     0192  3055               	movlw	85
   839     0193  00DC               	movwf	??_main
   840     0194                     u1227:
   841     0194  0BDC               	decfsz	??_main,f
   842     0195  2994               	goto	u1227
   843     0196  0BDD               	decfsz	??_main+1,f
   844     0197  2994               	goto	u1227
   845     0198  0BDE               	decfsz	??_main+2,f
   846     0199  2994               	goto	u1227
   847     019A  0000               	nop
   848     019B                     l1755:
   849                           
   850                           ;main.c: 89:     PORTAbits.RA7 = 0;
   851     019B  1283               	bcf	3,5	;RP0=0, select bank0
   852     019C  1303               	bcf	3,6	;RP1=0, select bank0
   853     019D  1385               	bcf	5,7	;volatile
   854     019E                     l1757:
   855                           
   856                           ;main.c: 90:     PORTAbits.RA6 = 0;
   857     019E  1305               	bcf	5,6	;volatile
   858     019F                     l1759:
   859                           
   860                           ;main.c: 91:     PORTBbits.RB5 = 0;
   861     019F  1286               	bcf	6,5	;volatile
   862     01A0                     l1761:
   863                           
   864                           ;main.c: 92:     PORTBbits.RB3 = 0;
   865     01A0  1186               	bcf	6,3	;volatile
   866     01A1                     l1763:
   867                           
   868                           ;main.c: 93:     _delay((unsigned long)((500)*(4000000/4000.0)));
   869     01A1  3003               	movlw	3
   870     01A2  1283               	bcf	3,5	;RP0=0, select bank0
   871     01A3  1303               	bcf	3,6	;RP1=0, select bank0
   872     01A4  00DE               	movwf	??_main+2
   873     01A5  308A               	movlw	138
   874     01A6  00DD               	movwf	??_main+1
   875     01A7  3055               	movlw	85
   876     01A8  00DC               	movwf	??_main
   877     01A9                     u1237:
   878     01A9  0BDC               	decfsz	??_main,f
   879     01AA  29A9               	goto	u1237
   880     01AB  0BDD               	decfsz	??_main+1,f
   881     01AC  29A9               	goto	u1237
   882     01AD  0BDE               	decfsz	??_main+2,f
   883     01AE  29A9               	goto	u1237
   884     01AF  0000               	nop
   885     01B0                     l1765:
   886                           
   887                           ;main.c: 94:     X = 1;
   888     01B0  1283               	bcf	3,5	;RP0=0, select bank0
   889     01B1  1303               	bcf	3,6	;RP1=0, select bank0
   890     01B2  01D0               	clrf	_X
   891     01B3  0AD0               	incf	_X,f
   892     01B4                     l1767:
   893                           
   894                           ;main.c: 95:     B = 1;
   895     01B4  01A3               	clrf	_B
   896     01B5  0AA3               	incf	_B,f
   897     01B6                     l1769:
   898                           
   899                           ;main.c: 96:     C = 1;
   900     01B6  01A2               	clrf	_C
   901     01B7  0AA2               	incf	_C,f
   902     01B8                     l1771:
   903                           
   904                           ;main.c: 99:     {;main.c: 100:     DHT11_READ_CLOCK();
   905     01B8  23CB               	fcall	_DHT11_READ_CLOCK
   906     01B9                     l1773:
   907                           
   908                           ;main.c: 101:     CONVERTIDOR__HEX_ASCII(H1);
   909     01B9  1283               	bcf	3,5	;RP0=0, select bank0
   910     01BA  1303               	bcf	3,6	;RP1=0, select bank0
   911     01BB  083A               	movf	_H1,w
   912     01BC  2202               	fcall	_CONVERTIDOR__HEX_ASCII
   913     01BD                     l1775:
   914                           
   915                           ;main.c: 102:     Uart_Send_Char(unidadM);
   916     01BD  1283               	bcf	3,5	;RP0=0, select bank0
   917     01BE  1303               	bcf	3,6	;RP1=0, select bank0
   918     01BF  0824               	movf	_unidadM,w
   919     01C0  2465               	fcall	_Uart_Send_Char
   920     01C1                     l1777:
   921                           
   922                           ;main.c: 103:     Uart_Send_Char(centena);
   923     01C1  1283               	bcf	3,5	;RP0=0, select bank0
   924     01C2  1303               	bcf	3,6	;RP1=0, select bank0
   925     01C3  0825               	movf	_centena,w
   926     01C4  2465               	fcall	_Uart_Send_Char
   927     01C5                     l1779:
   928                           
   929                           ;main.c: 104:     Uart_Send_Char('.');
   930     01C5  302E               	movlw	46
   931     01C6  2465               	fcall	_Uart_Send_Char
   932     01C7                     l1781:
   933                           
   934                           ;main.c: 105:     CONVERTIDOR__HEX_ASCII(H2);
   935     01C7  1283               	bcf	3,5	;RP0=0, select bank0
   936     01C8  1303               	bcf	3,6	;RP1=0, select bank0
   937     01C9  0837               	movf	_H2,w
   938     01CA  2202               	fcall	_CONVERTIDOR__HEX_ASCII
   939     01CB                     l1783:
   940                           
   941                           ;main.c: 106:     Uart_Send_Char(decena);
   942     01CB  1283               	bcf	3,5	;RP0=0, select bank0
   943     01CC  1303               	bcf	3,6	;RP1=0, select bank0
   944     01CD  0826               	movf	_decena,w
   945     01CE  2465               	fcall	_Uart_Send_Char
   946     01CF                     l1785:
   947                           
   948                           ;main.c: 107:     Uart_Send_Char(unidad);
   949     01CF  1283               	bcf	3,5	;RP0=0, select bank0
   950     01D0  1303               	bcf	3,6	;RP1=0, select bank0
   951     01D1  0827               	movf	_unidad,w
   952     01D2  2465               	fcall	_Uart_Send_Char
   953     01D3                     l1787:
   954                           
   955                           ;main.c: 108:     Uart_Send_String("\r\n");
   956     01D3  3031               	movlw	(low ((STR_9-__stringbase)| (0+32768)))& (0+255)
   957     01D4  240C               	fcall	_Uart_Send_String
   958     01D5                     l1789:
   959                           
   960                           ;main.c: 110:     CONVERTIDOR__HEX_ASCII(T1);
   961     01D5  1283               	bcf	3,5	;RP0=0, select bank0
   962     01D6  1303               	bcf	3,6	;RP1=0, select bank0
   963     01D7  0839               	movf	_T1,w
   964     01D8  2202               	fcall	_CONVERTIDOR__HEX_ASCII
   965     01D9                     l1791:
   966                           
   967                           ;main.c: 111:     Uart_Send_Char(unidadM);
   968     01D9  1283               	bcf	3,5	;RP0=0, select bank0
   969     01DA  1303               	bcf	3,6	;RP1=0, select bank0
   970     01DB  0824               	movf	_unidadM,w
   971     01DC  2465               	fcall	_Uart_Send_Char
   972     01DD                     l1793:
   973                           
   974                           ;main.c: 112:     Uart_Send_Char(centena);
   975     01DD  1283               	bcf	3,5	;RP0=0, select bank0
   976     01DE  1303               	bcf	3,6	;RP1=0, select bank0
   977     01DF  0825               	movf	_centena,w
   978     01E0  2465               	fcall	_Uart_Send_Char
   979     01E1                     l1795:
   980                           
   981                           ;main.c: 113:     Uart_Send_Char('.');
   982     01E1  302E               	movlw	46
   983     01E2  2465               	fcall	_Uart_Send_Char
   984     01E3                     l1797:
   985                           
   986                           ;main.c: 114:     CONVERTIDOR__HEX_ASCII(T2);
   987     01E3  1283               	bcf	3,5	;RP0=0, select bank0
   988     01E4  1303               	bcf	3,6	;RP1=0, select bank0
   989     01E5  0838               	movf	_T2,w
   990     01E6  2202               	fcall	_CONVERTIDOR__HEX_ASCII
   991     01E7                     l1799:
   992                           
   993                           ;main.c: 115:     Uart_Send_Char(decena);
   994     01E7  1283               	bcf	3,5	;RP0=0, select bank0
   995     01E8  1303               	bcf	3,6	;RP1=0, select bank0
   996     01E9  0826               	movf	_decena,w
   997     01EA  2465               	fcall	_Uart_Send_Char
   998     01EB                     l1801:
   999                           
  1000                           ;main.c: 116:     Uart_Send_Char(unidad);
  1001     01EB  1283               	bcf	3,5	;RP0=0, select bank0
  1002     01EC  1303               	bcf	3,6	;RP1=0, select bank0
  1003     01ED  0827               	movf	_unidad,w
  1004     01EE  2465               	fcall	_Uart_Send_Char
  1005     01EF                     l1803:
  1006                           
  1007                           ;main.c: 117:     Uart_Send_String("\r\n");
  1008     01EF  3031               	movlw	(low ((STR_9-__stringbase)| (0+32768)))& (0+255)
  1009     01F0  240C               	fcall	_Uart_Send_String
  1010     01F1                     l1805:
  1011                           
  1012                           ;main.c: 119:     _delay((unsigned long)((2000)*(4000000/4000.0)));
  1013     01F1  300B               	movlw	11
  1014     01F2  1283               	bcf	3,5	;RP0=0, select bank0
  1015     01F3  1303               	bcf	3,6	;RP1=0, select bank0
  1016     01F4  00DE               	movwf	??_main+2
  1017     01F5  3026               	movlw	38
  1018     01F6  00DD               	movwf	??_main+1
  1019     01F7  305D               	movlw	93
  1020     01F8  00DC               	movwf	??_main
  1021     01F9                     u1247:
  1022     01F9  0BDC               	decfsz	??_main,f
  1023     01FA  29F9               	goto	u1247
  1024     01FB  0BDD               	decfsz	??_main+1,f
  1025     01FC  29F9               	goto	u1247
  1026     01FD  0BDE               	decfsz	??_main+2,f
  1027     01FE  29F9               	goto	u1247
  1028     01FF  0000               	nop
  1029     0200  29B8               	goto	l1771
  1030     0201  280E               	ljmp	start
  1031     0202                     __end_of_main:
  1032                           
  1033                           	psect	text1
  1034     040C                     __ptext1:	
  1035 ;; *************** function _Uart_Send_String *****************
  1036 ;; Defined at:
  1037 ;;		line 37 in file "RS-232.c"
  1038 ;; Parameters:    Size  Location     Type
  1039 ;;  INFO            1    wreg     PTR unsigned char 
  1040 ;;		 -> STR_10(3), STR_9(3), 
  1041 ;; Auto vars:     Size  Location     Type
  1042 ;;  INFO            1    2[BANK0 ] PTR unsigned char 
  1043 ;;		 -> STR_10(3), STR_9(3), 
  1044 ;;  W               1    1[BANK0 ] unsigned char 
  1045 ;; Return value:  Size  Location     Type
  1046 ;;                  1    wreg      void 
  1047 ;; Registers used:
  1048 ;;		wreg, fsr0l, fsr0h, status,2, status,0, btemp+1, pclath, cstack
  1049 ;; Tracked objects:
  1050 ;;		On entry : 0/0
  1051 ;;		On exit  : 0/0
  1052 ;;		Unchanged: 0/0
  1053 ;; Data sizes:     COMMON   BANK0   BANK1   BANK2
  1054 ;;      Params:         0       0       0       0
  1055 ;;      Locals:         0       2       0       0
  1056 ;;      Temps:          0       0       0       0
  1057 ;;      Totals:         0       2       0       0
  1058 ;;Total ram usage:        2 bytes
  1059 ;; Hardware stack levels used: 1
  1060 ;; Hardware stack levels required when called: 4
  1061 ;; This function calls:
  1062 ;;		_Uart_Send_Char
  1063 ;; This function is called by:
  1064 ;;		_main
  1065 ;; This function uses a non-reentrant model
  1066 ;;
  1067                           
  1068     040C                     _Uart_Send_String:	
  1069                           ;psect for function _Uart_Send_String
  1070                           
  1071                           
  1072                           ;incstack = 0
  1073                           ; Regs used in _Uart_Send_String: [wreg-fsr0h+status,2+status,0+btemp+1+pclath+cstack]
  1074                           ;Uart_Send_String@INFO stored from wreg
  1075     040C  1283               	bcf	3,5	;RP0=0, select bank0
  1076     040D  1303               	bcf	3,6	;RP1=0, select bank0
  1077     040E  00D3               	movwf	Uart_Send_String@INFO
  1078     040F                     l1667:
  1079                           
  1080                           ;RS-232.c: 37: void Uart_Send_String(char *INFO);RS-232.c: 38: {;RS-232.c: 39:     char 
      +                          W;;RS-232.c: 40:     for (W = 0; INFO[W]!='\0'; W++)
  1081     040F  01D2               	clrf	Uart_Send_String@W
  1082     0410  2C1C               	goto	l1673
  1083     0411                     l1669:
  1084                           
  1085                           ;RS-232.c: 41:     {;RS-232.c: 42:         Uart_Send_Char(INFO[W]);
  1086     0411  0852               	movf	Uart_Send_String@W,w
  1087     0412  0753               	addwf	Uart_Send_String@INFO,w
  1088     0413  0084               	movwf	4
  1089     0414  2339               	fcall	stringdir
  1090     0415  2465               	fcall	_Uart_Send_Char
  1091     0416                     l1671:
  1092                           
  1093                           ;RS-232.c: 43:     }
  1094     0416  3001               	movlw	1
  1095     0417  00FF               	movwf	btemp+1
  1096     0418  087F               	movf	btemp+1,w
  1097     0419  1283               	bcf	3,5	;RP0=0, select bank0
  1098     041A  1303               	bcf	3,6	;RP1=0, select bank0
  1099     041B  07D2               	addwf	Uart_Send_String@W,f
  1100     041C                     l1673:
  1101     041C  0852               	movf	Uart_Send_String@W,w
  1102     041D  0753               	addwf	Uart_Send_String@INFO,w
  1103     041E  0084               	movwf	4
  1104     041F  2339               	fcall	stringdir
  1105     0420  3A00               	xorlw	0
  1106     0421  1D03               	skipz
  1107     0422  2C24               	goto	u1131
  1108     0423  2C25               	goto	u1130
  1109     0424                     u1131:
  1110     0424  2C11               	goto	l1669
  1111     0425                     u1130:
  1112     0425                     l222:
  1113     0425  0008               	return
  1114     0426                     __end_of_Uart_Send_String:
  1115                           
  1116                           	psect	text2
  1117     0465                     __ptext2:	
  1118 ;; *************** function _Uart_Send_Char *****************
  1119 ;; Defined at:
  1120 ;;		line 31 in file "RS-232.c"
  1121 ;; Parameters:    Size  Location     Type
  1122 ;;  INFO            1    wreg     unsigned char 
  1123 ;; Auto vars:     Size  Location     Type
  1124 ;;  INFO            1    0[BANK0 ] unsigned char 
  1125 ;; Return value:  Size  Location     Type
  1126 ;;                  1    wreg      void 
  1127 ;; Registers used:
  1128 ;;		wreg
  1129 ;; Tracked objects:
  1130 ;;		On entry : 0/0
  1131 ;;		On exit  : 0/0
  1132 ;;		Unchanged: 0/0
  1133 ;; Data sizes:     COMMON   BANK0   BANK1   BANK2
  1134 ;;      Params:         0       0       0       0
  1135 ;;      Locals:         0       1       0       0
  1136 ;;      Temps:          0       0       0       0
  1137 ;;      Totals:         0       1       0       0
  1138 ;;Total ram usage:        1 bytes
  1139 ;; Hardware stack levels used: 1
  1140 ;; Hardware stack levels required when called: 3
  1141 ;; This function calls:
  1142 ;;		Nothing
  1143 ;; This function is called by:
  1144 ;;		_main
  1145 ;;		_Uart_Send_String
  1146 ;; This function uses a non-reentrant model
  1147 ;;
  1148                           
  1149     0465                     _Uart_Send_Char:	
  1150                           ;psect for function _Uart_Send_Char
  1151                           
  1152                           
  1153                           ;incstack = 0
  1154                           ; Regs used in _Uart_Send_Char: [wreg]
  1155                           ;Uart_Send_Char@INFO stored from wreg
  1156     0465  1283               	bcf	3,5	;RP0=0, select bank0
  1157     0466  1303               	bcf	3,6	;RP1=0, select bank0
  1158     0467  00D1               	movwf	Uart_Send_Char@INFO
  1159     0468                     l1377:
  1160     0468                     l213:	
  1161                           ;RS-232.c: 31: void Uart_Send_Char(char INFO);RS-232.c: 32: {;RS-232.c: 33:     while(TX
      +                          STAbits.TRMT == 0);
  1162                           
  1163     0468  1683               	bsf	3,5	;RP0=1, select bank1
  1164     0469  1303               	bcf	3,6	;RP1=0, select bank1
  1165     046A  1C98               	btfss	24,1	;volatile
  1166     046B  2C6D               	goto	u621
  1167     046C  2C6E               	goto	u620
  1168     046D                     u621:
  1169     046D  2C68               	goto	l213
  1170     046E                     u620:
  1171     046E                     l1379:
  1172                           
  1173                           ;RS-232.c: 34:     TXREG = INFO;
  1174     046E  1283               	bcf	3,5	;RP0=0, select bank0
  1175     046F  1303               	bcf	3,6	;RP1=0, select bank0
  1176     0470  0851               	movf	Uart_Send_Char@INFO,w
  1177     0471  0099               	movwf	25	;volatile
  1178     0472                     l216:
  1179     0472  0008               	return
  1180     0473                     __end_of_Uart_Send_Char:
  1181                           
  1182                           	psect	text3
  1183     03EF                     __ptext3:	
  1184 ;; *************** function _Uart_Init *****************
  1185 ;; Defined at:
  1186 ;;		line 14 in file "RS-232.c"
  1187 ;; Parameters:    Size  Location     Type
  1188 ;;  baudios         2    0[BANK0 ] int 
  1189 ;; Auto vars:     Size  Location     Type
  1190 ;;		None
  1191 ;; Return value:  Size  Location     Type
  1192 ;;                  1    wreg      void 
  1193 ;; Registers used:
  1194 ;;		wreg, status,2, status,0
  1195 ;; Tracked objects:
  1196 ;;		On entry : 0/0
  1197 ;;		On exit  : 0/0
  1198 ;;		Unchanged: 0/0
  1199 ;; Data sizes:     COMMON   BANK0   BANK1   BANK2
  1200 ;;      Params:         0       2       0       0
  1201 ;;      Locals:         0       0       0       0
  1202 ;;      Temps:          0       0       0       0
  1203 ;;      Totals:         0       2       0       0
  1204 ;;Total ram usage:        2 bytes
  1205 ;; Hardware stack levels used: 1
  1206 ;; Hardware stack levels required when called: 3
  1207 ;; This function calls:
  1208 ;;		Nothing
  1209 ;; This function is called by:
  1210 ;;		_main
  1211 ;; This function uses a non-reentrant model
  1212 ;;
  1213                           
  1214     03EF                     _Uart_Init:	
  1215                           ;psect for function _Uart_Init
  1216                           
  1217     03EF                     l1591:	
  1218                           ;incstack = 0
  1219                           ; Regs used in _Uart_Init: [wreg+status,2+status,0]
  1220                           
  1221                           
  1222                           ;RS-232.c: 14: void Uart_Init(int baudios);RS-232.c: 15: {;RS-232.c: 16:     if(baudios 
      +                          == 9600)
  1223     03EF  3080               	movlw	128
  1224     03F0  1283               	bcf	3,5	;RP0=0, select bank0
  1225     03F1  1303               	bcf	3,6	;RP1=0, select bank0
  1226     03F2  0651               	xorwf	Uart_Init@baudios,w
  1227     03F3  3025               	movlw	37
  1228     03F4  1903               	skipnz
  1229     03F5  0652               	xorwf	Uart_Init@baudios+1,w
  1230     03F6  1D03               	btfss	3,2
  1231     03F7  2BF9               	goto	u1061
  1232     03F8  2BFA               	goto	u1060
  1233     03F9                     u1061:
  1234     03F9  2C0B               	goto	l210
  1235     03FA                     u1060:
  1236     03FA                     l1593:
  1237                           
  1238                           ;RS-232.c: 17:         {;RS-232.c: 18:         INTCONbits.GIE = 1;
  1239     03FA  178B               	bsf	11,7	;volatile
  1240                           
  1241                           ;RS-232.c: 19:         INTCONbits.PEIE = 1;
  1242     03FB  170B               	bsf	11,6	;volatile
  1243                           
  1244                           ;RS-232.c: 20:         PIE1bits.RCIE = 1;
  1245     03FC  1683               	bsf	3,5	;RP0=1, select bank1
  1246     03FD  1303               	bcf	3,6	;RP1=0, select bank1
  1247     03FE  168C               	bsf	12,5	;volatile
  1248                           
  1249                           ;RS-232.c: 21:         TRISBbits.TRISB1 = 1;
  1250     03FF  1486               	bsf	6,1	;volatile
  1251                           
  1252                           ;RS-232.c: 22:         TRISBbits.TRISB2 = 0;
  1253     0400  1106               	bcf	6,2	;volatile
  1254                           
  1255                           ;RS-232.c: 23:         TXSTAbits.TXEN = 1;
  1256     0401  1698               	bsf	24,5	;volatile
  1257                           
  1258                           ;RS-232.c: 24:         TXSTAbits.BRGH = 1;
  1259     0402  1518               	bsf	24,2	;volatile
  1260                           
  1261                           ;RS-232.c: 25:         RCSTAbits.SPEN = 1;
  1262     0403  1283               	bcf	3,5	;RP0=0, select bank0
  1263     0404  1303               	bcf	3,6	;RP1=0, select bank0
  1264     0405  1798               	bsf	24,7	;volatile
  1265                           
  1266                           ;RS-232.c: 26:         RCSTAbits.CREN = 1;
  1267     0406  1618               	bsf	24,4	;volatile
  1268     0407                     l1595:
  1269                           
  1270                           ;RS-232.c: 27:         SPBRG = 25;
  1271     0407  3019               	movlw	25
  1272     0408  1683               	bsf	3,5	;RP0=1, select bank1
  1273     0409  1303               	bcf	3,6	;RP1=0, select bank1
  1274     040A  0099               	movwf	25	;volatile
  1275     040B                     l210:
  1276     040B  0008               	return
  1277     040C                     __end_of_Uart_Init:
  1278                           
  1279                           	psect	text4
  1280     03CB                     __ptext4:	
  1281 ;; *************** function _DHT11_READ_CLOCK *****************
  1282 ;; Defined at:
  1283 ;;		line 166 in file "DHT11.c"
  1284 ;; Parameters:    Size  Location     Type
  1285 ;;		None
  1286 ;; Auto vars:     Size  Location     Type
  1287 ;;		None
  1288 ;; Return value:  Size  Location     Type
  1289 ;;                  1    wreg      void 
  1290 ;; Registers used:
  1291 ;;		wreg, status,2, status,0, pclath, cstack
  1292 ;; Tracked objects:
  1293 ;;		On entry : 0/0
  1294 ;;		On exit  : 0/0
  1295 ;;		Unchanged: 0/0
  1296 ;; Data sizes:     COMMON   BANK0   BANK1   BANK2
  1297 ;;      Params:         0       0       0       0
  1298 ;;      Locals:         0       0       0       0
  1299 ;;      Temps:          0       0       0       0
  1300 ;;      Totals:         0       0       0       0
  1301 ;;Total ram usage:        0 bytes
  1302 ;; Hardware stack levels used: 1
  1303 ;; Hardware stack levels required when called: 5
  1304 ;; This function calls:
  1305 ;;		_DHT11_Inicio
  1306 ;;		_DHT11_READ
  1307 ;;		_DHT11_READ_STAR
  1308 ;;		_DHT11_Res
  1309 ;; This function is called by:
  1310 ;;		_main
  1311 ;; This function uses a non-reentrant model
  1312 ;;
  1313                           
  1314     03CB                     _DHT11_READ_CLOCK:	
  1315                           ;psect for function _DHT11_READ_CLOCK
  1316                           
  1317     03CB                     l1597:	
  1318                           ;incstack = 0
  1319                           ; Regs used in _DHT11_READ_CLOCK: [wreg+status,2+status,0+pclath+cstack]
  1320                           
  1321                           
  1322                           ;DHT11.c: 168:    H1 = 0;
  1323     03CB  1283               	bcf	3,5	;RP0=0, select bank0
  1324     03CC  1303               	bcf	3,6	;RP1=0, select bank0
  1325     03CD  01BA               	clrf	_H1
  1326                           
  1327                           ;DHT11.c: 169:    H2 = 0;
  1328     03CE  01B7               	clrf	_H2
  1329                           
  1330                           ;DHT11.c: 170:    T1 = 0;
  1331     03CF  01B9               	clrf	_T1
  1332                           
  1333                           ;DHT11.c: 171:    T2 = 0;
  1334     03D0  01B8               	clrf	_T2
  1335     03D1                     l1599:
  1336                           
  1337                           ;DHT11.c: 172:    DHT11_Inicio();
  1338     03D1  2426               	fcall	_DHT11_Inicio
  1339     03D2                     l1601:
  1340                           
  1341                           ;DHT11.c: 173:    DHT11_Res();
  1342     03D2  2473               	fcall	_DHT11_Res
  1343     03D3                     l1603:
  1344                           
  1345                           ;DHT11.c: 174:    DHT11_READ_STAR();
  1346     03D3  2486               	fcall	_DHT11_READ_STAR
  1347     03D4                     l1605:
  1348                           
  1349                           ;DHT11.c: 176:    DHT11_READ(H1);
  1350     03D4  1283               	bcf	3,5	;RP0=0, select bank0
  1351     03D5  1303               	bcf	3,6	;RP1=0, select bank0
  1352     03D6  083A               	movf	_H1,w
  1353     03D7  201B               	fcall	_DHT11_READ
  1354     03D8                     l1607:
  1355                           
  1356                           ;DHT11.c: 177:    H1 = variable2;
  1357     03D8  087D               	movf	_variable2,w
  1358     03D9  1283               	bcf	3,5	;RP0=0, select bank0
  1359     03DA  1303               	bcf	3,6	;RP1=0, select bank0
  1360     03DB  00BA               	movwf	_H1
  1361     03DC                     l1609:
  1362                           
  1363                           ;DHT11.c: 179:    DHT11_READ(H2);
  1364     03DC  0837               	movf	_H2,w
  1365     03DD  201B               	fcall	_DHT11_READ
  1366     03DE                     l1611:
  1367                           
  1368                           ;DHT11.c: 180:    H2 = variable2;
  1369     03DE  087D               	movf	_variable2,w
  1370     03DF  1283               	bcf	3,5	;RP0=0, select bank0
  1371     03E0  1303               	bcf	3,6	;RP1=0, select bank0
  1372     03E1  00B7               	movwf	_H2
  1373     03E2                     l1613:
  1374                           
  1375                           ;DHT11.c: 182:    DHT11_READ(T1);
  1376     03E2  0839               	movf	_T1,w
  1377     03E3  201B               	fcall	_DHT11_READ
  1378     03E4                     l1615:
  1379                           
  1380                           ;DHT11.c: 183:    T1 = variable2;
  1381     03E4  087D               	movf	_variable2,w
  1382     03E5  1283               	bcf	3,5	;RP0=0, select bank0
  1383     03E6  1303               	bcf	3,6	;RP1=0, select bank0
  1384     03E7  00B9               	movwf	_T1
  1385     03E8                     l1617:
  1386                           
  1387                           ;DHT11.c: 185:    DHT11_READ(T2);
  1388     03E8  0838               	movf	_T2,w
  1389     03E9  201B               	fcall	_DHT11_READ
  1390     03EA                     l1619:
  1391                           
  1392                           ;DHT11.c: 186:    T2 = variable2;
  1393     03EA  087D               	movf	_variable2,w
  1394     03EB  1283               	bcf	3,5	;RP0=0, select bank0
  1395     03EC  1303               	bcf	3,6	;RP1=0, select bank0
  1396     03ED  00B8               	movwf	_T2
  1397     03EE                     l376:
  1398     03EE  0008               	return
  1399     03EF                     __end_of_DHT11_READ_CLOCK:
  1400                           
  1401                           	psect	text5
  1402     0473                     __ptext5:	
  1403 ;; *************** function _DHT11_Res *****************
  1404 ;; Defined at:
  1405 ;;		line 16 in file "DHT11.c"
  1406 ;; Parameters:    Size  Location     Type
  1407 ;;		None
  1408 ;; Auto vars:     Size  Location     Type
  1409 ;;		None
  1410 ;; Return value:  Size  Location     Type
  1411 ;;                  1    wreg      void 
  1412 ;; Registers used:
  1413 ;;		None
  1414 ;; Tracked objects:
  1415 ;;		On entry : 0/0
  1416 ;;		On exit  : 0/0
  1417 ;;		Unchanged: 0/0
  1418 ;; Data sizes:     COMMON   BANK0   BANK1   BANK2
  1419 ;;      Params:         0       0       0       0
  1420 ;;      Locals:         0       0       0       0
  1421 ;;      Temps:          0       0       0       0
  1422 ;;      Totals:         0       0       0       0
  1423 ;;Total ram usage:        0 bytes
  1424 ;; Hardware stack levels used: 1
  1425 ;; Hardware stack levels required when called: 3
  1426 ;; This function calls:
  1427 ;;		Nothing
  1428 ;; This function is called by:
  1429 ;;		_DHT11_READ_CLOCK
  1430 ;; This function uses a non-reentrant model
  1431 ;;
  1432                           
  1433     0473                     _DHT11_Res:	
  1434                           ;psect for function _DHT11_Res
  1435                           
  1436     0473                     l1387:	
  1437                           ;incstack = 0
  1438                           ; Regs used in _DHT11_Res: []
  1439                           
  1440     0473                     l318:	
  1441                           ;DHT11.c: 19:     {;DHT11.c: 20:     }
  1442                           
  1443                           
  1444                           ;DHT11.c: 18:     while (PORTBbits.RB4 == 0)
  1445     0473  1283               	bcf	3,5	;RP0=0, select bank0
  1446     0474  1303               	bcf	3,6	;RP1=0, select bank0
  1447     0475  1E06               	btfss	6,4	;volatile
  1448     0476  2C78               	goto	u641
  1449     0477  2C79               	goto	u640
  1450     0478                     u641:
  1451     0478  2C73               	goto	l318
  1452     0479                     u640:
  1453     0479                     l321:	
  1454                           ;DHT11.c: 22:     {;DHT11.c: 23:     }
  1455                           
  1456                           
  1457                           ;DHT11.c: 21:     while (PORTBbits.RB4 == 1)
  1458     0479  1A06               	btfsc	6,4	;volatile
  1459     047A  2C7C               	goto	u651
  1460     047B  2C7D               	goto	u650
  1461     047C                     u651:
  1462     047C  2C79               	goto	l321
  1463     047D                     u650:
  1464     047D                     l324:
  1465     047D  0008               	return
  1466     047E                     __end_of_DHT11_Res:
  1467                           
  1468                           	psect	text6
  1469     001B                     __ptext6:	
  1470 ;; *************** function _DHT11_READ *****************
  1471 ;; Defined at:
  1472 ;;		line 33 in file "DHT11.c"
  1473 ;; Parameters:    Size  Location     Type
  1474 ;;  variable        1    wreg     unsigned char 
  1475 ;; Auto vars:     Size  Location     Type
  1476 ;;  variable        1    1[BANK0 ] unsigned char 
  1477 ;; Return value:  Size  Location     Type
  1478 ;;                  1    wreg      void 
  1479 ;; Registers used:
  1480 ;;		wreg, status,2, status,0, pclath, cstack
  1481 ;; Tracked objects:
  1482 ;;		On entry : 0/0
  1483 ;;		On exit  : 0/0
  1484 ;;		Unchanged: 0/0
  1485 ;; Data sizes:     COMMON   BANK0   BANK1   BANK2
  1486 ;;      Params:         0       0       0       0
  1487 ;;      Locals:         0       1       0       0
  1488 ;;      Temps:          0       1       0       0
  1489 ;;      Totals:         0       2       0       0
  1490 ;;Total ram usage:        2 bytes
  1491 ;; Hardware stack levels used: 1
  1492 ;; Hardware stack levels required when called: 4
  1493 ;; This function calls:
  1494 ;;		_DHT11_READ_STAR
  1495 ;; This function is called by:
  1496 ;;		_DHT11_READ_CLOCK
  1497 ;; This function uses a non-reentrant model
  1498 ;;
  1499                           
  1500     001B                     _DHT11_READ:	
  1501                           ;psect for function _DHT11_READ
  1502                           
  1503                           
  1504                           ;incstack = 0
  1505                           ; Regs used in _DHT11_READ: [wreg+status,2+status,0+pclath+cstack]
  1506                           ;DHT11_READ@variable stored from wreg
  1507     001B  1283               	bcf	3,5	;RP0=0, select bank0
  1508     001C  1303               	bcf	3,6	;RP1=0, select bank0
  1509     001D  00D2               	movwf	DHT11_READ@variable
  1510     001E                     l1389:
  1511                           
  1512                           ;DHT11.c: 33: void DHT11_READ(unsigned char variable);DHT11.c: 34: {;DHT11.c: 36:     _d
      +                          elay((unsigned long)((30)*(4000000/4000000.0)));
  1513     001E  3009               	movlw	9
  1514     001F  1283               	bcf	3,5	;RP0=0, select bank0
  1515     0020  1303               	bcf	3,6	;RP1=0, select bank0
  1516     0021  00D1               	movwf	??_DHT11_READ
  1517     0022                     u1257:
  1518     0022  0BD1               	decfsz	??_DHT11_READ,f
  1519     0023  2822               	goto	u1257
  1520     0024  0000               	nop
  1521     0025                     l1391:
  1522                           
  1523                           ;DHT11.c: 37:     if (PORTBbits.RB4 == 1)
  1524     0025  1283               	bcf	3,5	;RP0=0, select bank0
  1525     0026  1303               	bcf	3,6	;RP1=0, select bank0
  1526     0027  1E06               	btfss	6,4	;volatile
  1527     0028  282A               	goto	u661
  1528     0029  282B               	goto	u660
  1529     002A                     u661:
  1530     002A  282D               	goto	l333
  1531     002B                     u660:
  1532     002B                     l1393:
  1533                           
  1534                           ;DHT11.c: 38:     {;DHT11.c: 39:         variable = 1;
  1535     002B  01D2               	clrf	DHT11_READ@variable
  1536     002C  0AD2               	incf	DHT11_READ@variable,f
  1537     002D                     l333:	
  1538                           ;DHT11.c: 40:     }
  1539                           
  1540                           
  1541                           ;DHT11.c: 41:     if (PORTBbits.RB4 == 0)
  1542     002D  1A06               	btfsc	6,4	;volatile
  1543     002E  2830               	goto	u671
  1544     002F  2831               	goto	u670
  1545     0030                     u671:
  1546     0030  2832               	goto	l335
  1547     0031                     u670:
  1548     0031                     l1395:
  1549                           
  1550                           ;DHT11.c: 42:     {;DHT11.c: 43:         variable = 0;
  1551     0031  01D2               	clrf	DHT11_READ@variable
  1552     0032                     l335:	
  1553                           ;DHT11.c: 46:         {;DHT11.c: 47:         }
  1554                           
  1555                           
  1556                           ;DHT11.c: 45:             while (PORTBbits.RB4 == 1)
  1557     0032  1A06               	btfsc	6,4	;volatile
  1558     0033  2835               	goto	u681
  1559     0034  2836               	goto	u680
  1560     0035                     u681:
  1561     0035  2832               	goto	l335
  1562     0036                     u680:
  1563     0036                     l1397:
  1564                           
  1565                           ;DHT11.c: 49:     DHT11_READ_STAR();
  1566     0036  2486               	fcall	_DHT11_READ_STAR
  1567     0037                     l1399:
  1568                           
  1569                           ;DHT11.c: 50:     _delay((unsigned long)((30)*(4000000/4000000.0)));
  1570     0037  3009               	movlw	9
  1571     0038  1283               	bcf	3,5	;RP0=0, select bank0
  1572     0039  1303               	bcf	3,6	;RP1=0, select bank0
  1573     003A  00D1               	movwf	??_DHT11_READ
  1574     003B                     u1267:
  1575     003B  0BD1               	decfsz	??_DHT11_READ,f
  1576     003C  283B               	goto	u1267
  1577     003D  0000               	nop
  1578     003E                     l1401:
  1579                           
  1580                           ;DHT11.c: 51:     if (PORTBbits.RB4 == 1)
  1581     003E  1283               	bcf	3,5	;RP0=0, select bank0
  1582     003F  1303               	bcf	3,6	;RP1=0, select bank0
  1583     0040  1E06               	btfss	6,4	;volatile
  1584     0041  2843               	goto	u691
  1585     0042  2844               	goto	u690
  1586     0043                     u691:
  1587     0043  284B               	goto	l1405
  1588     0044                     u690:
  1589     0044                     l1403:
  1590                           
  1591                           ;DHT11.c: 52:     {;DHT11.c: 53:         bit6 = variable <<1;
  1592     0044  0852               	movf	DHT11_READ@variable,w
  1593     0045  00D1               	movwf	??_DHT11_READ
  1594     0046  0751               	addwf	??_DHT11_READ,w
  1595     0047  00B1               	movwf	_bit6
  1596                           
  1597                           ;DHT11.c: 54:         variable = bit6 +1;
  1598     0048  0831               	movf	_bit6,w
  1599     0049  3E01               	addlw	1
  1600     004A  00D2               	movwf	DHT11_READ@variable
  1601     004B                     l1405:
  1602                           
  1603                           ;DHT11.c: 56:     if (PORTBbits.RB4 == 0)
  1604     004B  1A06               	btfsc	6,4	;volatile
  1605     004C  284E               	goto	u701
  1606     004D  284F               	goto	u700
  1607     004E                     u701:
  1608     004E  2855               	goto	l340
  1609     004F                     u700:
  1610     004F                     l1407:
  1611                           
  1612                           ;DHT11.c: 57:     {;DHT11.c: 58:         bit6 = variable <<1;
  1613     004F  0852               	movf	DHT11_READ@variable,w
  1614     0050  00D1               	movwf	??_DHT11_READ
  1615     0051  0751               	addwf	??_DHT11_READ,w
  1616     0052  00B1               	movwf	_bit6
  1617     0053                     l1409:
  1618                           
  1619                           ;DHT11.c: 59:         variable = bit6;
  1620     0053  0831               	movf	_bit6,w
  1621     0054  00D2               	movwf	DHT11_READ@variable
  1622     0055                     l340:	
  1623                           ;DHT11.c: 62:         {;DHT11.c: 63:         }
  1624                           
  1625                           
  1626                           ;DHT11.c: 61:                 while (PORTBbits.RB4 == 1)
  1627     0055  1A06               	btfsc	6,4	;volatile
  1628     0056  2858               	goto	u711
  1629     0057  2859               	goto	u710
  1630     0058                     u711:
  1631     0058  2855               	goto	l340
  1632     0059                     u710:
  1633     0059                     l1411:
  1634                           
  1635                           ;DHT11.c: 65:     DHT11_READ_STAR();
  1636     0059  2486               	fcall	_DHT11_READ_STAR
  1637     005A                     l1413:
  1638                           
  1639                           ;DHT11.c: 66:     _delay((unsigned long)((30)*(4000000/4000000.0)));
  1640     005A  3009               	movlw	9
  1641     005B  1283               	bcf	3,5	;RP0=0, select bank0
  1642     005C  1303               	bcf	3,6	;RP1=0, select bank0
  1643     005D  00D1               	movwf	??_DHT11_READ
  1644     005E                     u1277:
  1645     005E  0BD1               	decfsz	??_DHT11_READ,f
  1646     005F  285E               	goto	u1277
  1647     0060  0000               	nop
  1648     0061                     l1415:
  1649                           
  1650                           ;DHT11.c: 67:     if (PORTBbits.RB4 == 1)
  1651     0061  1283               	bcf	3,5	;RP0=0, select bank0
  1652     0062  1303               	bcf	3,6	;RP1=0, select bank0
  1653     0063  1E06               	btfss	6,4	;volatile
  1654     0064  2866               	goto	u721
  1655     0065  2867               	goto	u720
  1656     0066                     u721:
  1657     0066  286E               	goto	l1419
  1658     0067                     u720:
  1659     0067                     l1417:
  1660                           
  1661                           ;DHT11.c: 68:     {;DHT11.c: 69:         bit5 = variable <<1;
  1662     0067  0852               	movf	DHT11_READ@variable,w
  1663     0068  00D1               	movwf	??_DHT11_READ
  1664     0069  0751               	addwf	??_DHT11_READ,w
  1665     006A  00B2               	movwf	_bit5
  1666                           
  1667                           ;DHT11.c: 70:         variable = bit5 +1;
  1668     006B  0832               	movf	_bit5,w
  1669     006C  3E01               	addlw	1
  1670     006D  00D2               	movwf	DHT11_READ@variable
  1671     006E                     l1419:
  1672                           
  1673                           ;DHT11.c: 72:     if (PORTBbits.RB4 == 0)
  1674     006E  1A06               	btfsc	6,4	;volatile
  1675     006F  2871               	goto	u731
  1676     0070  2872               	goto	u730
  1677     0071                     u731:
  1678     0071  2878               	goto	l345
  1679     0072                     u730:
  1680     0072                     l1421:
  1681                           
  1682                           ;DHT11.c: 73:     {;DHT11.c: 74:         bit5 = variable <<1;
  1683     0072  0852               	movf	DHT11_READ@variable,w
  1684     0073  00D1               	movwf	??_DHT11_READ
  1685     0074  0751               	addwf	??_DHT11_READ,w
  1686     0075  00B2               	movwf	_bit5
  1687     0076                     l1423:
  1688                           
  1689                           ;DHT11.c: 75:         variable = bit5;
  1690     0076  0832               	movf	_bit5,w
  1691     0077  00D2               	movwf	DHT11_READ@variable
  1692     0078                     l345:	
  1693                           ;DHT11.c: 78:         {;DHT11.c: 79:         }
  1694                           
  1695                           
  1696                           ;DHT11.c: 77:                 while (PORTBbits.RB4 == 1)
  1697     0078  1A06               	btfsc	6,4	;volatile
  1698     0079  287B               	goto	u741
  1699     007A  287C               	goto	u740
  1700     007B                     u741:
  1701     007B  2878               	goto	l345
  1702     007C                     u740:
  1703     007C                     l1425:
  1704                           
  1705                           ;DHT11.c: 81:     DHT11_READ_STAR();
  1706     007C  2486               	fcall	_DHT11_READ_STAR
  1707     007D                     l1427:
  1708                           
  1709                           ;DHT11.c: 82:     _delay((unsigned long)((30)*(4000000/4000000.0)));
  1710     007D  3009               	movlw	9
  1711     007E  1283               	bcf	3,5	;RP0=0, select bank0
  1712     007F  1303               	bcf	3,6	;RP1=0, select bank0
  1713     0080  00D1               	movwf	??_DHT11_READ
  1714     0081                     u1287:
  1715     0081  0BD1               	decfsz	??_DHT11_READ,f
  1716     0082  2881               	goto	u1287
  1717     0083  0000               	nop
  1718     0084                     l1429:
  1719                           
  1720                           ;DHT11.c: 83:     if (PORTBbits.RB4 == 1)
  1721     0084  1283               	bcf	3,5	;RP0=0, select bank0
  1722     0085  1303               	bcf	3,6	;RP1=0, select bank0
  1723     0086  1E06               	btfss	6,4	;volatile
  1724     0087  2889               	goto	u751
  1725     0088  288A               	goto	u750
  1726     0089                     u751:
  1727     0089  2891               	goto	l1433
  1728     008A                     u750:
  1729     008A                     l1431:
  1730                           
  1731                           ;DHT11.c: 84:     {;DHT11.c: 85:         bit4 = variable <<1;
  1732     008A  0852               	movf	DHT11_READ@variable,w
  1733     008B  00D1               	movwf	??_DHT11_READ
  1734     008C  0751               	addwf	??_DHT11_READ,w
  1735     008D  00B3               	movwf	_bit4
  1736                           
  1737                           ;DHT11.c: 86:         variable = bit4 +1;
  1738     008E  0833               	movf	_bit4,w
  1739     008F  3E01               	addlw	1
  1740     0090  00D2               	movwf	DHT11_READ@variable
  1741     0091                     l1433:
  1742                           
  1743                           ;DHT11.c: 88:     if (PORTBbits.RB4 == 0)
  1744     0091  1A06               	btfsc	6,4	;volatile
  1745     0092  2894               	goto	u761
  1746     0093  2895               	goto	u760
  1747     0094                     u761:
  1748     0094  289B               	goto	l350
  1749     0095                     u760:
  1750     0095                     l1435:
  1751                           
  1752                           ;DHT11.c: 89:     {;DHT11.c: 90:         bit4 = variable <<1;
  1753     0095  0852               	movf	DHT11_READ@variable,w
  1754     0096  00D1               	movwf	??_DHT11_READ
  1755     0097  0751               	addwf	??_DHT11_READ,w
  1756     0098  00B3               	movwf	_bit4
  1757     0099                     l1437:
  1758                           
  1759                           ;DHT11.c: 91:         variable = bit4;
  1760     0099  0833               	movf	_bit4,w
  1761     009A  00D2               	movwf	DHT11_READ@variable
  1762     009B                     l350:	
  1763                           ;DHT11.c: 94:         {;DHT11.c: 95:         }
  1764                           
  1765                           
  1766                           ;DHT11.c: 93:                 while (PORTBbits.RB4 == 1)
  1767     009B  1A06               	btfsc	6,4	;volatile
  1768     009C  289E               	goto	u771
  1769     009D  289F               	goto	u770
  1770     009E                     u771:
  1771     009E  289B               	goto	l350
  1772     009F                     u770:
  1773     009F                     l1439:
  1774                           
  1775                           ;DHT11.c: 97:     DHT11_READ_STAR();
  1776     009F  2486               	fcall	_DHT11_READ_STAR
  1777     00A0                     l1441:
  1778                           
  1779                           ;DHT11.c: 98:     _delay((unsigned long)((30)*(4000000/4000000.0)));
  1780     00A0  3009               	movlw	9
  1781     00A1  1283               	bcf	3,5	;RP0=0, select bank0
  1782     00A2  1303               	bcf	3,6	;RP1=0, select bank0
  1783     00A3  00D1               	movwf	??_DHT11_READ
  1784     00A4                     u1297:
  1785     00A4  0BD1               	decfsz	??_DHT11_READ,f
  1786     00A5  28A4               	goto	u1297
  1787     00A6  0000               	nop
  1788     00A7                     l1443:
  1789                           
  1790                           ;DHT11.c: 99:     if (PORTBbits.RB4 == 1)
  1791     00A7  1283               	bcf	3,5	;RP0=0, select bank0
  1792     00A8  1303               	bcf	3,6	;RP1=0, select bank0
  1793     00A9  1E06               	btfss	6,4	;volatile
  1794     00AA  28AC               	goto	u781
  1795     00AB  28AD               	goto	u780
  1796     00AC                     u781:
  1797     00AC  28B4               	goto	l1447
  1798     00AD                     u780:
  1799     00AD                     l1445:
  1800                           
  1801                           ;DHT11.c: 100:     {;DHT11.c: 101:         bit3 = variable <<1;
  1802     00AD  0852               	movf	DHT11_READ@variable,w
  1803     00AE  00D1               	movwf	??_DHT11_READ
  1804     00AF  0751               	addwf	??_DHT11_READ,w
  1805     00B0  00B4               	movwf	_bit3
  1806                           
  1807                           ;DHT11.c: 102:         variable = bit3 +1;
  1808     00B1  0834               	movf	_bit3,w
  1809     00B2  3E01               	addlw	1
  1810     00B3  00D2               	movwf	DHT11_READ@variable
  1811     00B4                     l1447:
  1812                           
  1813                           ;DHT11.c: 104:     if (PORTBbits.RB4 == 0)
  1814     00B4  1A06               	btfsc	6,4	;volatile
  1815     00B5  28B7               	goto	u791
  1816     00B6  28B8               	goto	u790
  1817     00B7                     u791:
  1818     00B7  28BE               	goto	l355
  1819     00B8                     u790:
  1820     00B8                     l1449:
  1821                           
  1822                           ;DHT11.c: 105:     {;DHT11.c: 106:         bit3 = variable <<1;
  1823     00B8  0852               	movf	DHT11_READ@variable,w
  1824     00B9  00D1               	movwf	??_DHT11_READ
  1825     00BA  0751               	addwf	??_DHT11_READ,w
  1826     00BB  00B4               	movwf	_bit3
  1827     00BC                     l1451:
  1828                           
  1829                           ;DHT11.c: 107:         variable = bit3;
  1830     00BC  0834               	movf	_bit3,w
  1831     00BD  00D2               	movwf	DHT11_READ@variable
  1832     00BE                     l355:	
  1833                           ;DHT11.c: 110:         {;DHT11.c: 111:         }
  1834                           
  1835                           
  1836                           ;DHT11.c: 109:                 while (PORTBbits.RB4 == 1)
  1837     00BE  1A06               	btfsc	6,4	;volatile
  1838     00BF  28C1               	goto	u801
  1839     00C0  28C2               	goto	u800
  1840     00C1                     u801:
  1841     00C1  28BE               	goto	l355
  1842     00C2                     u800:
  1843     00C2                     l1453:
  1844                           
  1845                           ;DHT11.c: 113:     DHT11_READ_STAR();
  1846     00C2  2486               	fcall	_DHT11_READ_STAR
  1847     00C3                     l1455:
  1848                           
  1849                           ;DHT11.c: 114:     _delay((unsigned long)((30)*(4000000/4000000.0)));
  1850     00C3  3009               	movlw	9
  1851     00C4  1283               	bcf	3,5	;RP0=0, select bank0
  1852     00C5  1303               	bcf	3,6	;RP1=0, select bank0
  1853     00C6  00D1               	movwf	??_DHT11_READ
  1854     00C7                     u1307:
  1855     00C7  0BD1               	decfsz	??_DHT11_READ,f
  1856     00C8  28C7               	goto	u1307
  1857     00C9  0000               	nop
  1858     00CA                     l1457:
  1859                           
  1860                           ;DHT11.c: 115:     if (PORTBbits.RB4 == 1)
  1861     00CA  1283               	bcf	3,5	;RP0=0, select bank0
  1862     00CB  1303               	bcf	3,6	;RP1=0, select bank0
  1863     00CC  1E06               	btfss	6,4	;volatile
  1864     00CD  28CF               	goto	u811
  1865     00CE  28D0               	goto	u810
  1866     00CF                     u811:
  1867     00CF  28D7               	goto	l1461
  1868     00D0                     u810:
  1869     00D0                     l1459:
  1870                           
  1871                           ;DHT11.c: 116:     {;DHT11.c: 117:         bit2 = variable <<1;
  1872     00D0  0852               	movf	DHT11_READ@variable,w
  1873     00D1  00D1               	movwf	??_DHT11_READ
  1874     00D2  0751               	addwf	??_DHT11_READ,w
  1875     00D3  00B5               	movwf	_bit2
  1876                           
  1877                           ;DHT11.c: 118:         variable = bit2 +1;
  1878     00D4  0835               	movf	_bit2,w
  1879     00D5  3E01               	addlw	1
  1880     00D6  00D2               	movwf	DHT11_READ@variable
  1881     00D7                     l1461:
  1882                           
  1883                           ;DHT11.c: 120:     if (PORTBbits.RB4 == 0)
  1884     00D7  1A06               	btfsc	6,4	;volatile
  1885     00D8  28DA               	goto	u821
  1886     00D9  28DB               	goto	u820
  1887     00DA                     u821:
  1888     00DA  28E1               	goto	l360
  1889     00DB                     u820:
  1890     00DB                     l1463:
  1891                           
  1892                           ;DHT11.c: 121:     {;DHT11.c: 122:         bit2 = variable <<1;
  1893     00DB  0852               	movf	DHT11_READ@variable,w
  1894     00DC  00D1               	movwf	??_DHT11_READ
  1895     00DD  0751               	addwf	??_DHT11_READ,w
  1896     00DE  00B5               	movwf	_bit2
  1897     00DF                     l1465:
  1898                           
  1899                           ;DHT11.c: 123:         variable = bit2;
  1900     00DF  0835               	movf	_bit2,w
  1901     00E0  00D2               	movwf	DHT11_READ@variable
  1902     00E1                     l360:	
  1903                           ;DHT11.c: 126:         {;DHT11.c: 127:         }
  1904                           
  1905                           
  1906                           ;DHT11.c: 125:                 while (PORTBbits.RB4 == 1)
  1907     00E1  1A06               	btfsc	6,4	;volatile
  1908     00E2  28E4               	goto	u831
  1909     00E3  28E5               	goto	u830
  1910     00E4                     u831:
  1911     00E4  28E1               	goto	l360
  1912     00E5                     u830:
  1913     00E5                     l1467:
  1914                           
  1915                           ;DHT11.c: 129:     DHT11_READ_STAR();
  1916     00E5  2486               	fcall	_DHT11_READ_STAR
  1917     00E6                     l1469:
  1918                           
  1919                           ;DHT11.c: 130:     _delay((unsigned long)((30)*(4000000/4000000.0)));
  1920     00E6  3009               	movlw	9
  1921     00E7  1283               	bcf	3,5	;RP0=0, select bank0
  1922     00E8  1303               	bcf	3,6	;RP1=0, select bank0
  1923     00E9  00D1               	movwf	??_DHT11_READ
  1924     00EA                     u1317:
  1925     00EA  0BD1               	decfsz	??_DHT11_READ,f
  1926     00EB  28EA               	goto	u1317
  1927     00EC  0000               	nop
  1928     00ED                     l1471:
  1929                           
  1930                           ;DHT11.c: 131:     if (PORTBbits.RB4 == 1)
  1931     00ED  1283               	bcf	3,5	;RP0=0, select bank0
  1932     00EE  1303               	bcf	3,6	;RP1=0, select bank0
  1933     00EF  1E06               	btfss	6,4	;volatile
  1934     00F0  28F2               	goto	u841
  1935     00F1  28F3               	goto	u840
  1936     00F2                     u841:
  1937     00F2  28FA               	goto	l1475
  1938     00F3                     u840:
  1939     00F3                     l1473:
  1940                           
  1941                           ;DHT11.c: 132:     {;DHT11.c: 133:         bit1 = variable <<1;
  1942     00F3  0852               	movf	DHT11_READ@variable,w
  1943     00F4  00D1               	movwf	??_DHT11_READ
  1944     00F5  0751               	addwf	??_DHT11_READ,w
  1945     00F6  00FB               	movwf	_bit1
  1946                           
  1947                           ;DHT11.c: 134:         variable = bit1 +1;
  1948     00F7  087B               	movf	_bit1,w
  1949     00F8  3E01               	addlw	1
  1950     00F9  00D2               	movwf	DHT11_READ@variable
  1951     00FA                     l1475:
  1952                           
  1953                           ;DHT11.c: 136:     if (PORTBbits.RB4 == 0)
  1954     00FA  1A06               	btfsc	6,4	;volatile
  1955     00FB  28FD               	goto	u851
  1956     00FC  28FE               	goto	u850
  1957     00FD                     u851:
  1958     00FD  2904               	goto	l365
  1959     00FE                     u850:
  1960     00FE                     l1477:
  1961                           
  1962                           ;DHT11.c: 137:     {;DHT11.c: 138:         bit1 = variable <<1;
  1963     00FE  0852               	movf	DHT11_READ@variable,w
  1964     00FF  00D1               	movwf	??_DHT11_READ
  1965     0100  0751               	addwf	??_DHT11_READ,w
  1966     0101  00FB               	movwf	_bit1
  1967     0102                     l1479:
  1968                           
  1969                           ;DHT11.c: 139:         variable = bit1;
  1970     0102  087B               	movf	_bit1,w
  1971     0103  00D2               	movwf	DHT11_READ@variable
  1972     0104                     l365:	
  1973                           ;DHT11.c: 142:         {;DHT11.c: 143:         }
  1974                           
  1975                           
  1976                           ;DHT11.c: 141:                 while (PORTBbits.RB4 == 1)
  1977     0104  1A06               	btfsc	6,4	;volatile
  1978     0105  2907               	goto	u861
  1979     0106  2908               	goto	u860
  1980     0107                     u861:
  1981     0107  2904               	goto	l365
  1982     0108                     u860:
  1983     0108                     l1481:
  1984                           
  1985                           ;DHT11.c: 145:     DHT11_READ_STAR();
  1986     0108  2486               	fcall	_DHT11_READ_STAR
  1987     0109                     l1483:
  1988                           
  1989                           ;DHT11.c: 146:     _delay((unsigned long)((30)*(4000000/4000000.0)));
  1990     0109  3009               	movlw	9
  1991     010A  1283               	bcf	3,5	;RP0=0, select bank0
  1992     010B  1303               	bcf	3,6	;RP1=0, select bank0
  1993     010C  00D1               	movwf	??_DHT11_READ
  1994     010D                     u1327:
  1995     010D  0BD1               	decfsz	??_DHT11_READ,f
  1996     010E  290D               	goto	u1327
  1997     010F  0000               	nop
  1998     0110                     l1485:
  1999                           
  2000                           ;DHT11.c: 147:     if (PORTBbits.RB4 == 1)
  2001     0110  1283               	bcf	3,5	;RP0=0, select bank0
  2002     0111  1303               	bcf	3,6	;RP1=0, select bank0
  2003     0112  1E06               	btfss	6,4	;volatile
  2004     0113  2915               	goto	u871
  2005     0114  2916               	goto	u870
  2006     0115                     u871:
  2007     0115  291D               	goto	l1489
  2008     0116                     u870:
  2009     0116                     l1487:
  2010                           
  2011                           ;DHT11.c: 148:     {;DHT11.c: 149:         bit0 = variable <<1;
  2012     0116  0852               	movf	DHT11_READ@variable,w
  2013     0117  00D1               	movwf	??_DHT11_READ
  2014     0118  0751               	addwf	??_DHT11_READ,w
  2015     0119  00FC               	movwf	_bit0
  2016                           
  2017                           ;DHT11.c: 150:         variable = bit0 +1;
  2018     011A  087C               	movf	_bit0,w
  2019     011B  3E01               	addlw	1
  2020     011C  00D2               	movwf	DHT11_READ@variable
  2021     011D                     l1489:
  2022                           
  2023                           ;DHT11.c: 152:     if (PORTBbits.RB4 == 0)
  2024     011D  1A06               	btfsc	6,4	;volatile
  2025     011E  2920               	goto	u881
  2026     011F  2921               	goto	u880
  2027     0120                     u881:
  2028     0120  2927               	goto	l370
  2029     0121                     u880:
  2030     0121                     l1491:
  2031                           
  2032                           ;DHT11.c: 153:     {;DHT11.c: 154:         bit0 = variable <<1;
  2033     0121  0852               	movf	DHT11_READ@variable,w
  2034     0122  00D1               	movwf	??_DHT11_READ
  2035     0123  0751               	addwf	??_DHT11_READ,w
  2036     0124  00FC               	movwf	_bit0
  2037     0125                     l1493:
  2038                           
  2039                           ;DHT11.c: 155:         variable = bit0;
  2040     0125  087C               	movf	_bit0,w
  2041     0126  00D2               	movwf	DHT11_READ@variable
  2042     0127                     l370:	
  2043                           ;DHT11.c: 158:         {;DHT11.c: 159:         }
  2044                           
  2045                           
  2046                           ;DHT11.c: 157:                 while (PORTBbits.RB4 == 1)
  2047     0127  1A06               	btfsc	6,4	;volatile
  2048     0128  292A               	goto	u891
  2049     0129  292B               	goto	u890
  2050     012A                     u891:
  2051     012A  2927               	goto	l370
  2052     012B                     u890:
  2053     012B                     l1495:
  2054                           
  2055                           ;DHT11.c: 160:     variable2 = variable;
  2056     012B  0852               	movf	DHT11_READ@variable,w
  2057     012C  00FD               	movwf	_variable2
  2058     012D                     l1497:
  2059                           
  2060                           ;DHT11.c: 161:     DHT11_READ_STAR();
  2061     012D  2486               	fcall	_DHT11_READ_STAR
  2062     012E                     l373:
  2063     012E  0008               	return
  2064     012F                     __end_of_DHT11_READ:
  2065                           
  2066                           	psect	text7
  2067     0486                     __ptext7:	
  2068 ;; *************** function _DHT11_READ_STAR *****************
  2069 ;; Defined at:
  2070 ;;		line 26 in file "DHT11.c"
  2071 ;; Parameters:    Size  Location     Type
  2072 ;;		None
  2073 ;; Auto vars:     Size  Location     Type
  2074 ;;		None
  2075 ;; Return value:  Size  Location     Type
  2076 ;;                  1    wreg      void 
  2077 ;; Registers used:
  2078 ;;		None
  2079 ;; Tracked objects:
  2080 ;;		On entry : 0/0
  2081 ;;		On exit  : 0/0
  2082 ;;		Unchanged: 0/0
  2083 ;; Data sizes:     COMMON   BANK0   BANK1   BANK2
  2084 ;;      Params:         0       0       0       0
  2085 ;;      Locals:         0       0       0       0
  2086 ;;      Temps:          0       0       0       0
  2087 ;;      Totals:         0       0       0       0
  2088 ;;Total ram usage:        0 bytes
  2089 ;; Hardware stack levels used: 1
  2090 ;; Hardware stack levels required when called: 3
  2091 ;; This function calls:
  2092 ;;		Nothing
  2093 ;; This function is called by:
  2094 ;;		_DHT11_READ
  2095 ;;		_DHT11_READ_CLOCK
  2096 ;; This function uses a non-reentrant model
  2097 ;;
  2098                           
  2099     0486                     _DHT11_READ_STAR:	
  2100                           ;psect for function _DHT11_READ_STAR
  2101                           
  2102     0486                     l1375:	
  2103                           ;incstack = 0
  2104                           ; Regs used in _DHT11_READ_STAR: []
  2105                           
  2106     0486                     l327:	
  2107                           ;DHT11.c: 29:     {;DHT11.c: 30:     }
  2108                           
  2109                           
  2110                           ;DHT11.c: 28:     while (PORTBbits.RB4 == 0)
  2111     0486  1283               	bcf	3,5	;RP0=0, select bank0
  2112     0487  1303               	bcf	3,6	;RP1=0, select bank0
  2113     0488  1E06               	btfss	6,4	;volatile
  2114     0489  2C8B               	goto	u611
  2115     048A  2C8C               	goto	u610
  2116     048B                     u611:
  2117     048B  2C86               	goto	l327
  2118     048C                     u610:
  2119     048C                     l330:
  2120     048C  0008               	return
  2121     048D                     __end_of_DHT11_READ_STAR:
  2122                           
  2123                           	psect	text8
  2124     0426                     __ptext8:	
  2125 ;; *************** function _DHT11_Inicio *****************
  2126 ;; Defined at:
  2127 ;;		line 5 in file "DHT11.c"
  2128 ;; Parameters:    Size  Location     Type
  2129 ;;		None
  2130 ;; Auto vars:     Size  Location     Type
  2131 ;;		None
  2132 ;; Return value:  Size  Location     Type
  2133 ;;                  1    wreg      void 
  2134 ;; Registers used:
  2135 ;;		wreg
  2136 ;; Tracked objects:
  2137 ;;		On entry : 0/0
  2138 ;;		On exit  : 0/0
  2139 ;;		Unchanged: 0/0
  2140 ;; Data sizes:     COMMON   BANK0   BANK1   BANK2
  2141 ;;      Params:         0       0       0       0
  2142 ;;      Locals:         0       0       0       0
  2143 ;;      Temps:          0       2       0       0
  2144 ;;      Totals:         0       2       0       0
  2145 ;;Total ram usage:        2 bytes
  2146 ;; Hardware stack levels used: 1
  2147 ;; Hardware stack levels required when called: 3
  2148 ;; This function calls:
  2149 ;;		Nothing
  2150 ;; This function is called by:
  2151 ;;		_DHT11_READ_CLOCK
  2152 ;; This function uses a non-reentrant model
  2153 ;;
  2154                           
  2155     0426                     _DHT11_Inicio:	
  2156                           ;psect for function _DHT11_Inicio
  2157                           
  2158     0426                     l1381:	
  2159                           ;incstack = 0
  2160                           ; Regs used in _DHT11_Inicio: [wreg]
  2161                           
  2162                           
  2163                           ;DHT11.c: 7:     TRISBbits.TRISB4 = 0;
  2164     0426  1683               	bsf	3,5	;RP0=1, select bank1
  2165     0427  1303               	bcf	3,6	;RP1=0, select bank1
  2166     0428  1206               	bcf	6,4	;volatile
  2167                           
  2168                           ;DHT11.c: 8:     PORTBbits.RB4 = 0;
  2169     0429  1283               	bcf	3,5	;RP0=0, select bank0
  2170     042A  1303               	bcf	3,6	;RP1=0, select bank0
  2171     042B  1206               	bcf	6,4	;volatile
  2172     042C                     l1383:
  2173                           
  2174                           ;DHT11.c: 9:     _delay((unsigned long)((25)*(4000000/4000.0)));
  2175     042C  3021               	movlw	33
  2176     042D  1283               	bcf	3,5	;RP0=0, select bank0
  2177     042E  1303               	bcf	3,6	;RP1=0, select bank0
  2178     042F  00D2               	movwf	??_DHT11_Inicio+1
  2179     0430  3076               	movlw	118
  2180     0431  00D1               	movwf	??_DHT11_Inicio
  2181     0432                     u1337:
  2182     0432  0BD1               	decfsz	??_DHT11_Inicio,f
  2183     0433  2C32               	goto	u1337
  2184     0434  0BD2               	decfsz	??_DHT11_Inicio+1,f
  2185     0435  2C32               	goto	u1337
  2186     0436                     l1385:
  2187                           
  2188                           ;DHT11.c: 10:     TRISBbits.TRISB4 = 1;
  2189     0436  1683               	bsf	3,5	;RP0=1, select bank1
  2190     0437  1303               	bcf	3,6	;RP1=0, select bank1
  2191     0438  1606               	bsf	6,4	;volatile
  2192     0439                     l312:	
  2193                           ;DHT11.c: 12:     {;DHT11.c: 13:     }
  2194                           
  2195                           
  2196                           ;DHT11.c: 11:     while (PORTBbits.RB4 == 1)
  2197     0439  1283               	bcf	3,5	;RP0=0, select bank0
  2198     043A  1A06               	btfsc	6,4	;volatile
  2199     043B  2C3D               	goto	u631
  2200     043C  2C3E               	goto	u630
  2201     043D                     u631:
  2202     043D  2C39               	goto	l312
  2203     043E                     u630:
  2204     043E                     l315:
  2205     043E  0008               	return
  2206     043F                     __end_of_DHT11_Inicio:
  2207                           
  2208                           	psect	text9
  2209     0202                     __ptext9:	
  2210 ;; *************** function _CONVERTIDOR__HEX_ASCII *****************
  2211 ;; Defined at:
  2212 ;;		line 191 in file "DHT11.c"
  2213 ;; Parameters:    Size  Location     Type
  2214 ;;  CONVER_DATO     1    wreg     unsigned char 
  2215 ;; Auto vars:     Size  Location     Type
  2216 ;;  CONVER_DATO     1   10[BANK0 ] unsigned char 
  2217 ;; Return value:  Size  Location     Type
  2218 ;;                  1    wreg      void 
  2219 ;; Registers used:
  2220 ;;		wreg, status,2, status,0, btemp+1, pclath, cstack
  2221 ;; Tracked objects:
  2222 ;;		On entry : 0/0
  2223 ;;		On exit  : 0/0
  2224 ;;		Unchanged: 0/0
  2225 ;; Data sizes:     COMMON   BANK0   BANK1   BANK2
  2226 ;;      Params:         0       0       0       0
  2227 ;;      Locals:         0       1       0       0
  2228 ;;      Temps:          0       2       0       0
  2229 ;;      Totals:         0       3       0       0
  2230 ;;Total ram usage:        3 bytes
  2231 ;; Hardware stack levels used: 1
  2232 ;; Hardware stack levels required when called: 4
  2233 ;; This function calls:
  2234 ;;		___awdiv
  2235 ;;		___bmul
  2236 ;; This function is called by:
  2237 ;;		_main
  2238 ;; This function uses a non-reentrant model
  2239 ;;
  2240                           
  2241     0202                     _CONVERTIDOR__HEX_ASCII:	
  2242                           ;psect for function _CONVERTIDOR__HEX_ASCII
  2243                           
  2244                           
  2245                           ;incstack = 0
  2246                           ; Regs used in _CONVERTIDOR__HEX_ASCII: [wreg+status,2+status,0+btemp+1+pclath+cstack]
  2247                           ;CONVERTIDOR__HEX_ASCII@CONVER_DATO stored from wreg
  2248     0202  1283               	bcf	3,5	;RP0=0, select bank0
  2249     0203  1303               	bcf	3,6	;RP1=0, select bank0
  2250     0204  00DB               	movwf	CONVERTIDOR__HEX_ASCII@CONVER_DATO
  2251     0205                     l1621:
  2252                           
  2253                           ;DHT11.c: 191: void CONVERTIDOR__HEX_ASCII(unsigned char CONVER_DATO);DHT11.c: 192: {;DH
      +                          T11.c: 193:     DATO_MSB = CONVER_DATO;
  2254     0205  085B               	movf	CONVERTIDOR__HEX_ASCII@CONVER_DATO,w
  2255     0206  00AD               	movwf	_DATO_MSB
  2256                           
  2257                           ;DHT11.c: 194:     DATO_LSB = CONVER_DATO;
  2258     0207  085B               	movf	CONVERTIDOR__HEX_ASCII@CONVER_DATO,w
  2259     0208  00AE               	movwf	_DATO_LSB
  2260                           
  2261                           ;DHT11.c: 195:     DATO = CONVER_DATO;
  2262     0209  085B               	movf	CONVERTIDOR__HEX_ASCII@CONVER_DATO,w
  2263     020A  00A8               	movwf	_DATO
  2264     020B                     l1623:
  2265                           
  2266                           ;DHT11.c: 197:     DATO_MSB /= 0x0A;
  2267     020B  300A               	movlw	10
  2268     020C  00D1               	movwf	___awdiv@divisor
  2269     020D  3000               	movlw	0
  2270     020E  00D2               	movwf	___awdiv@divisor+1
  2271     020F  082D               	movf	_DATO_MSB,w
  2272     0210  00D9               	movwf	??_CONVERTIDOR__HEX_ASCII
  2273     0211  01DA               	clrf	??_CONVERTIDOR__HEX_ASCII+1
  2274     0212  0859               	movf	??_CONVERTIDOR__HEX_ASCII,w
  2275     0213  00D3               	movwf	___awdiv@dividend
  2276     0214  085A               	movf	??_CONVERTIDOR__HEX_ASCII+1,w
  2277     0215  00D4               	movwf	___awdiv@dividend+1
  2278     0216  2280               	fcall	___awdiv
  2279     0217  1283               	bcf	3,5	;RP0=0, select bank0
  2280     0218  1303               	bcf	3,6	;RP1=0, select bank0
  2281     0219  0851               	movf	?___awdiv,w
  2282     021A  00AD               	movwf	_DATO_MSB
  2283     021B                     l1625:
  2284                           
  2285                           ;DHT11.c: 198:     unidadM = DATO_MSB;
  2286     021B  082D               	movf	_DATO_MSB,w
  2287     021C  00A4               	movwf	_unidadM
  2288     021D                     l1627:
  2289                           
  2290                           ;DHT11.c: 199:     unidadM += 0x30;
  2291     021D  3030               	movlw	48
  2292     021E  00FF               	movwf	btemp+1
  2293     021F  087F               	movf	btemp+1,w
  2294     0220  07A4               	addwf	_unidadM,f
  2295     0221                     l1629:
  2296                           
  2297                           ;DHT11.c: 201:     DATO_MSB /= 0x0A;
  2298     0221  300A               	movlw	10
  2299     0222  00D1               	movwf	___awdiv@divisor
  2300     0223  3000               	movlw	0
  2301     0224  00D2               	movwf	___awdiv@divisor+1
  2302     0225  082D               	movf	_DATO_MSB,w
  2303     0226  00D9               	movwf	??_CONVERTIDOR__HEX_ASCII
  2304     0227  01DA               	clrf	??_CONVERTIDOR__HEX_ASCII+1
  2305     0228  0859               	movf	??_CONVERTIDOR__HEX_ASCII,w
  2306     0229  00D3               	movwf	___awdiv@dividend
  2307     022A  085A               	movf	??_CONVERTIDOR__HEX_ASCII+1,w
  2308     022B  00D4               	movwf	___awdiv@dividend+1
  2309     022C  2280               	fcall	___awdiv
  2310     022D  1283               	bcf	3,5	;RP0=0, select bank0
  2311     022E  1303               	bcf	3,6	;RP1=0, select bank0
  2312     022F  0851               	movf	?___awdiv,w
  2313     0230  00AD               	movwf	_DATO_MSB
  2314     0231                     l1631:
  2315                           
  2316                           ;DHT11.c: 202:     decena = DATO_MSB;
  2317     0231  082D               	movf	_DATO_MSB,w
  2318     0232  00A6               	movwf	_decena
  2319     0233                     l1633:
  2320                           
  2321                           ;DHT11.c: 203:     decena += 0x30;
  2322     0233  3030               	movlw	48
  2323     0234  00FF               	movwf	btemp+1
  2324     0235  087F               	movf	btemp+1,w
  2325     0236  07A6               	addwf	_decena,f
  2326                           
  2327                           ;DHT11.c: 205:     if (DATO <= 9)
  2328     0237  300A               	movlw	10
  2329     0238  0228               	subwf	_DATO,w
  2330     0239  1803               	skipnc
  2331     023A  2A3C               	goto	u1071
  2332     023B  2A3D               	goto	u1070
  2333     023C                     u1071:
  2334     023C  2A49               	goto	l1641
  2335     023D                     u1070:
  2336     023D                     l1635:
  2337                           
  2338                           ;DHT11.c: 206:     {;DHT11.c: 207:         centena = DATO_LSB;
  2339     023D  082E               	movf	_DATO_LSB,w
  2340     023E  00A5               	movwf	_centena
  2341     023F                     l1637:
  2342                           
  2343                           ;DHT11.c: 208:         centena += 0x30;
  2344     023F  3030               	movlw	48
  2345     0240  00FF               	movwf	btemp+1
  2346     0241  087F               	movf	btemp+1,w
  2347     0242  07A5               	addwf	_centena,f
  2348     0243                     l1639:
  2349                           
  2350                           ;DHT11.c: 210:         unidad = DATO_LSB;
  2351     0243  082E               	movf	_DATO_LSB,w
  2352     0244  00A7               	movwf	_unidad
  2353                           
  2354                           ;DHT11.c: 211:         unidad += 0x30;
  2355     0245  3030               	movlw	48
  2356     0246  00FF               	movwf	btemp+1
  2357     0247  087F               	movf	btemp+1,w
  2358     0248  07A7               	addwf	_unidad,f
  2359     0249                     l1641:
  2360                           
  2361                           ;DHT11.c: 214:         if (DATO >= 0x0A && DATO <= 0xFF)
  2362     0249  300A               	movlw	10
  2363     024A  0228               	subwf	_DATO,w
  2364     024B  1C03               	skipc
  2365     024C  2A4E               	goto	u1081
  2366     024D  2A4F               	goto	u1080
  2367     024E                     u1081:
  2368     024E  2A7F               	goto	l383
  2369     024F                     u1080:
  2370     024F                     l1643:
  2371                           
  2372                           ;DHT11.c: 215:         {;DHT11.c: 216:         DATO_LSB -= (0x0A * X);
  2373     024F  300A               	movlw	10
  2374     0250  00D1               	movwf	___bmul@multiplicand
  2375     0251  0850               	movf	_X,w
  2376     0252  243F               	fcall	___bmul
  2377     0253  1283               	bcf	3,5	;RP0=0, select bank0
  2378     0254  1303               	bcf	3,6	;RP1=0, select bank0
  2379     0255  00D9               	movwf	??_CONVERTIDOR__HEX_ASCII
  2380     0256  0859               	movf	??_CONVERTIDOR__HEX_ASCII,w
  2381     0257  02AE               	subwf	_DATO_LSB,f
  2382     0258                     l1645:
  2383                           
  2384                           ;DHT11.c: 217:             if (DATO_LSB <= 9 && C == 1)
  2385     0258  300A               	movlw	10
  2386     0259  022E               	subwf	_DATO_LSB,w
  2387     025A  1803               	skipnc
  2388     025B  2A5D               	goto	u1091
  2389     025C  2A5E               	goto	u1090
  2390     025D                     u1091:
  2391     025D  2A6D               	goto	l1657
  2392     025E                     u1090:
  2393     025E                     l1647:
  2394     025E  0322               	decf	_C,w
  2395     025F  1D03               	btfss	3,2
  2396     0260  2A62               	goto	u1101
  2397     0261  2A63               	goto	u1100
  2398     0262                     u1101:
  2399     0262  2A6D               	goto	l1657
  2400     0263                     u1100:
  2401     0263                     l1649:
  2402                           
  2403                           ;DHT11.c: 218:             {;DHT11.c: 219:                 centena = DATO_LSB;
  2404     0263  082E               	movf	_DATO_LSB,w
  2405     0264  00A5               	movwf	_centena
  2406     0265                     l1651:
  2407                           
  2408                           ;DHT11.c: 220:                 centena += 0x30;
  2409     0265  3030               	movlw	48
  2410     0266  00FF               	movwf	btemp+1
  2411     0267  087F               	movf	btemp+1,w
  2412     0268  07A5               	addwf	_centena,f
  2413     0269                     l1653:
  2414                           
  2415                           ;DHT11.c: 221:                 B = 1;
  2416     0269  01A3               	clrf	_B
  2417     026A  0AA3               	incf	_B,f
  2418     026B                     l1655:
  2419                           
  2420                           ;DHT11.c: 222:                 X = 1;
  2421     026B  01D0               	clrf	_X
  2422     026C  0AD0               	incf	_X,f
  2423     026D                     l1657:
  2424                           
  2425                           ;DHT11.c: 224:         if (DATO_LSB >= 0x0A && B == 1)
  2426     026D  300A               	movlw	10
  2427     026E  022E               	subwf	_DATO_LSB,w
  2428     026F  1C03               	skipc
  2429     0270  2A72               	goto	u1111
  2430     0271  2A73               	goto	u1110
  2431     0272                     u1111:
  2432     0272  2A7F               	goto	l383
  2433     0273                     u1110:
  2434     0273                     l1659:
  2435     0273  0323               	decf	_B,w
  2436     0274  1D03               	btfss	3,2
  2437     0275  2A77               	goto	u1121
  2438     0276  2A78               	goto	u1120
  2439     0277                     u1121:
  2440     0277  2A7F               	goto	l383
  2441     0278                     u1120:
  2442     0278                     l1661:
  2443                           
  2444                           ;DHT11.c: 225:         {;DHT11.c: 226:             X++;
  2445     0278  3001               	movlw	1
  2446     0279  00FF               	movwf	btemp+1
  2447     027A  087F               	movf	btemp+1,w
  2448     027B  07D0               	addwf	_X,f
  2449     027C                     l1663:
  2450                           
  2451                           ;DHT11.c: 227:             B = 0;
  2452     027C  01A3               	clrf	_B
  2453     027D                     l1665:
  2454                           
  2455                           ;DHT11.c: 228:             C = 1;
  2456     027D  01A2               	clrf	_C
  2457     027E  0AA2               	incf	_C,f
  2458     027F                     l383:
  2459     027F  0008               	return
  2460     0280                     __end_of_CONVERTIDOR__HEX_ASCII:
  2461                           
  2462                           	psect	text10
  2463     043F                     __ptext10:	
  2464 ;; *************** function ___bmul *****************
  2465 ;; Defined at:
  2466 ;;		line 4 in file "C:\Program Files\Microchip\xc8\v2.46\pic\sources\c99\common\Umul8.c"
  2467 ;; Parameters:    Size  Location     Type
  2468 ;;  multiplier      1    wreg     unsigned char 
  2469 ;;  multiplicand    1    0[BANK0 ] unsigned char 
  2470 ;; Auto vars:     Size  Location     Type
  2471 ;;  multiplier      1    2[BANK0 ] unsigned char 
  2472 ;;  product         1    1[BANK0 ] unsigned char 
  2473 ;; Return value:  Size  Location     Type
  2474 ;;                  1    wreg      unsigned char 
  2475 ;; Registers used:
  2476 ;;		wreg, status,2, status,0, btemp+1
  2477 ;; Tracked objects:
  2478 ;;		On entry : 0/0
  2479 ;;		On exit  : 0/0
  2480 ;;		Unchanged: 0/0
  2481 ;; Data sizes:     COMMON   BANK0   BANK1   BANK2
  2482 ;;      Params:         0       1       0       0
  2483 ;;      Locals:         0       2       0       0
  2484 ;;      Temps:          0       0       0       0
  2485 ;;      Totals:         0       3       0       0
  2486 ;;Total ram usage:        3 bytes
  2487 ;; Hardware stack levels used: 1
  2488 ;; Hardware stack levels required when called: 3
  2489 ;; This function calls:
  2490 ;;		Nothing
  2491 ;; This function is called by:
  2492 ;;		_CONVERTIDOR__HEX_ASCII
  2493 ;; This function uses a non-reentrant model
  2494 ;;
  2495                           
  2496     043F                     ___bmul:	
  2497                           ;psect for function ___bmul
  2498                           
  2499                           
  2500                           ;incstack = 0
  2501                           ; Regs used in ___bmul: [wreg+status,2+status,0+btemp+1]
  2502                           ;___bmul@multiplier stored from wreg
  2503     043F  1283               	bcf	3,5	;RP0=0, select bank0
  2504     0440  1303               	bcf	3,6	;RP1=0, select bank0
  2505     0441  00D3               	movwf	___bmul@multiplier
  2506     0442                     l1499:
  2507     0442  01D2               	clrf	___bmul@product
  2508     0443                     l1501:
  2509     0443  1C53               	btfss	___bmul@multiplier,0
  2510     0444  2C46               	goto	u901
  2511     0445  2C47               	goto	u900
  2512     0446                     u901:
  2513     0446  2C4B               	goto	l1505
  2514     0447                     u900:
  2515     0447                     l1503:
  2516     0447  0851               	movf	___bmul@multiplicand,w
  2517     0448  00FF               	movwf	btemp+1
  2518     0449  087F               	movf	btemp+1,w
  2519     044A  07D2               	addwf	___bmul@product,f
  2520     044B                     l1505:
  2521     044B  1003               	clrc
  2522     044C  0DD1               	rlf	___bmul@multiplicand,f
  2523     044D                     l1507:
  2524     044D  1003               	clrc
  2525     044E  0CD3               	rrf	___bmul@multiplier,f
  2526     044F                     l1509:
  2527     044F  0853               	movf	___bmul@multiplier,w
  2528     0450  1D03               	btfss	3,2
  2529     0451  2C53               	goto	u911
  2530     0452  2C54               	goto	u910
  2531     0453                     u911:
  2532     0453  2C43               	goto	l1501
  2533     0454                     u910:
  2534     0454                     l1511:
  2535     0454  0852               	movf	___bmul@product,w
  2536     0455                     l495:
  2537     0455  0008               	return
  2538     0456                     __end_of___bmul:
  2539                           
  2540                           	psect	text11
  2541     0280                     __ptext11:	
  2542 ;; *************** function ___awdiv *****************
  2543 ;; Defined at:
  2544 ;;		line 5 in file "C:\Program Files\Microchip\xc8\v2.46\pic\sources\c99\common\awdiv.c"
  2545 ;; Parameters:    Size  Location     Type
  2546 ;;  divisor         2    0[BANK0 ] int 
  2547 ;;  dividend        2    2[BANK0 ] int 
  2548 ;; Auto vars:     Size  Location     Type
  2549 ;;  quotient        2    6[BANK0 ] int 
  2550 ;;  sign            1    5[BANK0 ] unsigned char 
  2551 ;;  counter         1    4[BANK0 ] unsigned char 
  2552 ;; Return value:  Size  Location     Type
  2553 ;;                  2    0[BANK0 ] int 
  2554 ;; Registers used:
  2555 ;;		wreg, status,2, status,0, btemp+1
  2556 ;; Tracked objects:
  2557 ;;		On entry : 0/0
  2558 ;;		On exit  : 0/0
  2559 ;;		Unchanged: 0/0
  2560 ;; Data sizes:     COMMON   BANK0   BANK1   BANK2
  2561 ;;      Params:         0       4       0       0
  2562 ;;      Locals:         0       4       0       0
  2563 ;;      Temps:          0       0       0       0
  2564 ;;      Totals:         0       8       0       0
  2565 ;;Total ram usage:        8 bytes
  2566 ;; Hardware stack levels used: 1
  2567 ;; Hardware stack levels required when called: 3
  2568 ;; This function calls:
  2569 ;;		Nothing
  2570 ;; This function is called by:
  2571 ;;		_CONVERTIDOR__HEX_ASCII
  2572 ;; This function uses a non-reentrant model
  2573 ;;
  2574                           
  2575     0280                     ___awdiv:	
  2576                           ;psect for function ___awdiv
  2577                           
  2578     0280                     l1515:	
  2579                           ;incstack = 0
  2580                           ; Regs used in ___awdiv: [wreg+status,2+status,0+btemp+1]
  2581                           
  2582     0280  1283               	bcf	3,5	;RP0=0, select bank0
  2583     0281  1303               	bcf	3,6	;RP1=0, select bank0
  2584     0282  01D6               	clrf	___awdiv@sign
  2585     0283                     l1517:
  2586     0283  1FD2               	btfss	___awdiv@divisor+1,7
  2587     0284  2A86               	goto	u921
  2588     0285  2A87               	goto	u920
  2589     0286                     u921:
  2590     0286  2A8E               	goto	l1523
  2591     0287                     u920:
  2592     0287                     l1519:
  2593     0287  09D1               	comf	___awdiv@divisor,f
  2594     0288  09D2               	comf	___awdiv@divisor+1,f
  2595     0289  0AD1               	incf	___awdiv@divisor,f
  2596     028A  1903               	skipnz
  2597     028B  0AD2               	incf	___awdiv@divisor+1,f
  2598     028C                     l1521:
  2599     028C  01D6               	clrf	___awdiv@sign
  2600     028D  0AD6               	incf	___awdiv@sign,f
  2601     028E                     l1523:
  2602     028E  1FD4               	btfss	___awdiv@dividend+1,7
  2603     028F  2A91               	goto	u931
  2604     0290  2A92               	goto	u930
  2605     0291                     u931:
  2606     0291  2A9B               	goto	l1529
  2607     0292                     u930:
  2608     0292                     l1525:
  2609     0292  09D3               	comf	___awdiv@dividend,f
  2610     0293  09D4               	comf	___awdiv@dividend+1,f
  2611     0294  0AD3               	incf	___awdiv@dividend,f
  2612     0295  1903               	skipnz
  2613     0296  0AD4               	incf	___awdiv@dividend+1,f
  2614     0297                     l1527:
  2615     0297  3001               	movlw	1
  2616     0298  00FF               	movwf	btemp+1
  2617     0299  087F               	movf	btemp+1,w
  2618     029A  06D6               	xorwf	___awdiv@sign,f
  2619     029B                     l1529:
  2620     029B  01D7               	clrf	___awdiv@quotient
  2621     029C  01D8               	clrf	___awdiv@quotient+1
  2622     029D                     l1531:
  2623     029D  0851               	movf	___awdiv@divisor,w
  2624     029E  0452               	iorwf	___awdiv@divisor+1,w
  2625     029F  1903               	btfsc	3,2
  2626     02A0  2AA2               	goto	u941
  2627     02A1  2AA3               	goto	u940
  2628     02A2                     u941:
  2629     02A2  2ADA               	goto	l1551
  2630     02A3                     u940:
  2631     02A3                     l1533:
  2632     02A3  01D5               	clrf	___awdiv@counter
  2633     02A4  0AD5               	incf	___awdiv@counter,f
  2634     02A5  2AB1               	goto	l1539
  2635     02A6                     l1535:
  2636     02A6  3001               	movlw	1
  2637     02A7                     u955:
  2638     02A7  1003               	clrc
  2639     02A8  0DD1               	rlf	___awdiv@divisor,f
  2640     02A9  0DD2               	rlf	___awdiv@divisor+1,f
  2641     02AA  3EFF               	addlw	-1
  2642     02AB  1D03               	skipz
  2643     02AC  2AA7               	goto	u955
  2644     02AD                     l1537:
  2645     02AD  3001               	movlw	1
  2646     02AE  00FF               	movwf	btemp+1
  2647     02AF  087F               	movf	btemp+1,w
  2648     02B0  07D5               	addwf	___awdiv@counter,f
  2649     02B1                     l1539:
  2650     02B1  1FD2               	btfss	___awdiv@divisor+1,7
  2651     02B2  2AB4               	goto	u961
  2652     02B3  2AB5               	goto	u960
  2653     02B4                     u961:
  2654     02B4  2AA6               	goto	l1535
  2655     02B5                     u960:
  2656     02B5                     l1541:
  2657     02B5  3001               	movlw	1
  2658     02B6                     u975:
  2659     02B6  1003               	clrc
  2660     02B7  0DD7               	rlf	___awdiv@quotient,f
  2661     02B8  0DD8               	rlf	___awdiv@quotient+1,f
  2662     02B9  3EFF               	addlw	-1
  2663     02BA  1D03               	skipz
  2664     02BB  2AB6               	goto	u975
  2665     02BC  0852               	movf	___awdiv@divisor+1,w
  2666     02BD  0254               	subwf	___awdiv@dividend+1,w
  2667     02BE  1D03               	skipz
  2668     02BF  2AC2               	goto	u985
  2669     02C0  0851               	movf	___awdiv@divisor,w
  2670     02C1  0253               	subwf	___awdiv@dividend,w
  2671     02C2                     u985:
  2672     02C2  1C03               	skipc
  2673     02C3  2AC5               	goto	u981
  2674     02C4  2AC6               	goto	u980
  2675     02C5                     u981:
  2676     02C5  2ACD               	goto	l1547
  2677     02C6                     u980:
  2678     02C6                     l1543:
  2679     02C6  0851               	movf	___awdiv@divisor,w
  2680     02C7  02D3               	subwf	___awdiv@dividend,f
  2681     02C8  0852               	movf	___awdiv@divisor+1,w
  2682     02C9  1C03               	skipc
  2683     02CA  03D4               	decf	___awdiv@dividend+1,f
  2684     02CB  02D4               	subwf	___awdiv@dividend+1,f
  2685     02CC                     l1545:
  2686     02CC  1457               	bsf	___awdiv@quotient,0
  2687     02CD                     l1547:
  2688     02CD  3001               	movlw	1
  2689     02CE                     u995:
  2690     02CE  1003               	clrc
  2691     02CF  0CD2               	rrf	___awdiv@divisor+1,f
  2692     02D0  0CD1               	rrf	___awdiv@divisor,f
  2693     02D1  3EFF               	addlw	-1
  2694     02D2  1D03               	skipz
  2695     02D3  2ACE               	goto	u995
  2696     02D4                     l1549:
  2697     02D4  3001               	movlw	1
  2698     02D5  02D5               	subwf	___awdiv@counter,f
  2699     02D6  1D03               	btfss	3,2
  2700     02D7  2AD9               	goto	u1001
  2701     02D8  2ADA               	goto	u1000
  2702     02D9                     u1001:
  2703     02D9  2AB5               	goto	l1541
  2704     02DA                     u1000:
  2705     02DA                     l1551:
  2706     02DA  0856               	movf	___awdiv@sign,w
  2707     02DB  1903               	btfsc	3,2
  2708     02DC  2ADE               	goto	u1011
  2709     02DD  2ADF               	goto	u1010
  2710     02DE                     u1011:
  2711     02DE  2AE4               	goto	l1555
  2712     02DF                     u1010:
  2713     02DF                     l1553:
  2714     02DF  09D7               	comf	___awdiv@quotient,f
  2715     02E0  09D8               	comf	___awdiv@quotient+1,f
  2716     02E1  0AD7               	incf	___awdiv@quotient,f
  2717     02E2  1903               	skipnz
  2718     02E3  0AD8               	incf	___awdiv@quotient+1,f
  2719     02E4                     l1555:
  2720     02E4  0858               	movf	___awdiv@quotient+1,w
  2721     02E5  00D2               	movwf	?___awdiv+1
  2722     02E6  0857               	movf	___awdiv@quotient,w
  2723     02E7  00D1               	movwf	?___awdiv
  2724     02E8                     l622:
  2725     02E8  0008               	return
  2726     02E9                     __end_of___awdiv:
  2727                           
  2728                           	psect	text12
  2729     02E9                     __ptext12:	
  2730 ;; *************** function _RX_DATO *****************
  2731 ;; Defined at:
  2732 ;;		line 17 in file "main.c"
  2733 ;; Parameters:    Size  Location     Type
  2734 ;;		None
  2735 ;; Auto vars:     Size  Location     Type
  2736 ;;		None
  2737 ;; Return value:  Size  Location     Type
  2738 ;;                  1    wreg      void 
  2739 ;; Registers used:
  2740 ;;		wreg, fsr0l, fsr0h, status,2, status,0, btemp+1, pclath, cstack
  2741 ;; Tracked objects:
  2742 ;;		On entry : 0/0
  2743 ;;		On exit  : 0/0
  2744 ;;		Unchanged: 0/0
  2745 ;; Data sizes:     COMMON   BANK0   BANK1   BANK2
  2746 ;;      Params:         0       0       0       0
  2747 ;;      Locals:         0       0       0       0
  2748 ;;      Temps:          4       0       0       0
  2749 ;;      Totals:         4       0       0       0
  2750 ;;Total ram usage:        4 bytes
  2751 ;; Hardware stack levels used: 1
  2752 ;; Hardware stack levels required when called: 2
  2753 ;; This function calls:
  2754 ;;		_Uart_Read_String
  2755 ;;		_strcmp
  2756 ;; This function is called by:
  2757 ;;		Interrupt level 1
  2758 ;; This function uses a non-reentrant model
  2759 ;;
  2760                           
  2761     02E9                     _RX_DATO:	
  2762                           ;psect for function _RX_DATO
  2763                           
  2764     02E9                     i1l1675:
  2765                           
  2766                           ;main.c: 19:     if (PIR1bits.RCIF == 1)
  2767     02E9  1283               	bcf	3,5	;RP0=0, select bank0
  2768     02EA  1303               	bcf	3,6	;RP1=0, select bank0
  2769     02EB  1E8C               	btfss	12,5	;volatile
  2770     02EC  2AEE               	goto	u114_21
  2771     02ED  2AEF               	goto	u114_20
  2772     02EE                     u114_21:
  2773     02EE  2B2B               	goto	i1l107
  2774     02EF                     u114_20:
  2775     02EF                     i1l1677:
  2776                           
  2777                           ;main.c: 20:     {;main.c: 21:     Uart_Read_String(cadena, 20);
  2778     02EF  3014               	movlw	20
  2779     02F0  00F0               	movwf	Uart_Read_String@s_buf
  2780     02F1  3000               	movlw	0
  2781     02F2  00F1               	movwf	Uart_Read_String@s_buf+1
  2782     02F3  303C               	movlw	(low (_cadena| 0))& (0+255)
  2783     02F4  239F               	fcall	_Uart_Read_String
  2784     02F5                     i1l1679:
  2785                           
  2786                           ;main.c: 23:             if(!strcmp(cadena, "BLE_OK"))
  2787     02F5  302A               	movlw	(low ((STR_1-__stringbase)| (0+32768)))& (0+255)
  2788     02F6  00F0               	movwf	strcmp@r
  2789     02F7  303C               	movlw	(low (_cadena| 0))& (0+255)
  2790     02F8  2372               	fcall	_strcmp
  2791     02F9  0870               	movf	?_strcmp,w
  2792     02FA  0471               	iorwf	?_strcmp+1,w
  2793     02FB  1D03               	btfss	3,2
  2794     02FC  2AFE               	goto	u115_21
  2795     02FD  2AFF               	goto	u115_20
  2796     02FE                     u115_21:
  2797     02FE  2B03               	goto	i1l1683
  2798     02FF                     u115_20:
  2799     02FF                     i1l1681:
  2800                           
  2801                           ;main.c: 24:             {;main.c: 28:             PORTAbits.RA7 = 1;
  2802     02FF  1283               	bcf	3,5	;RP0=0, select bank0
  2803     0300  1303               	bcf	3,6	;RP1=0, select bank0
  2804     0301  1785               	bsf	5,7	;volatile
  2805                           
  2806                           ;main.c: 29:             PORTAbits.RA6 = 0;
  2807     0302  1305               	bcf	5,6	;volatile
  2808     0303                     i1l1683:
  2809                           
  2810                           ;main.c: 32:             if(!strcmp(cadena, "BLE_NOK"))
  2811     0303  3022               	movlw	(low ((STR_3-__stringbase)| (0+32768)))& (0+255)
  2812     0304  00F0               	movwf	strcmp@r
  2813     0305  303C               	movlw	(low (_cadena| 0))& (0+255)
  2814     0306  2372               	fcall	_strcmp
  2815     0307  0870               	movf	?_strcmp,w
  2816     0308  0471               	iorwf	?_strcmp+1,w
  2817     0309  1D03               	btfss	3,2
  2818     030A  2B0C               	goto	u116_21
  2819     030B  2B0D               	goto	u116_20
  2820     030C                     u116_21:
  2821     030C  2B11               	goto	i1l1687
  2822     030D                     u116_20:
  2823     030D                     i1l1685:
  2824                           
  2825                           ;main.c: 33:             {;main.c: 37:             PORTAbits.RA7 = 0;
  2826     030D  1283               	bcf	3,5	;RP0=0, select bank0
  2827     030E  1303               	bcf	3,6	;RP1=0, select bank0
  2828     030F  1385               	bcf	5,7	;volatile
  2829                           
  2830                           ;main.c: 38:             PORTAbits.RA6 = 1;
  2831     0310  1705               	bsf	5,6	;volatile
  2832     0311                     i1l1687:
  2833                           
  2834                           ;main.c: 41:             if(!strcmp(cadena, "SALIDA_BLE_1_ON"))
  2835     0311  3012               	movlw	(low ((STR_5-__stringbase)| (0+32768)))& (0+255)
  2836     0312  00F0               	movwf	strcmp@r
  2837     0313  303C               	movlw	(low (_cadena| 0))& (0+255)
  2838     0314  2372               	fcall	_strcmp
  2839     0315  0870               	movf	?_strcmp,w
  2840     0316  0471               	iorwf	?_strcmp+1,w
  2841     0317  1D03               	btfss	3,2
  2842     0318  2B1A               	goto	u117_21
  2843     0319  2B1B               	goto	u117_20
  2844     031A                     u117_21:
  2845     031A  2B1E               	goto	i1l1691
  2846     031B                     u117_20:
  2847     031B                     i1l1689:
  2848                           
  2849                           ;main.c: 42:             {;main.c: 46:             PORTBbits.RB5 = 1;
  2850     031B  1283               	bcf	3,5	;RP0=0, select bank0
  2851     031C  1303               	bcf	3,6	;RP1=0, select bank0
  2852     031D  1686               	bsf	6,5	;volatile
  2853     031E                     i1l1691:
  2854                           
  2855                           ;main.c: 49:             if(!strcmp(cadena, "SALIDA_BLE_1_OFF"))
  2856     031E  3001               	movlw	(low ((STR_7-__stringbase)| (0+32768)))& (0+255)
  2857     031F  00F0               	movwf	strcmp@r
  2858     0320  303C               	movlw	(low (_cadena| 0))& (0+255)
  2859     0321  2372               	fcall	_strcmp
  2860     0322  0870               	movf	?_strcmp,w
  2861     0323  0471               	iorwf	?_strcmp+1,w
  2862     0324  1D03               	btfss	3,2
  2863     0325  2B27               	goto	u118_21
  2864     0326  2B28               	goto	u118_20
  2865     0327                     u118_21:
  2866     0327  2B2B               	goto	i1l107
  2867     0328                     u118_20:
  2868     0328                     i1l1693:
  2869                           
  2870                           ;main.c: 50:             {;main.c: 54:             PORTBbits.RB5 = 0;
  2871     0328  1283               	bcf	3,5	;RP0=0, select bank0
  2872     0329  1303               	bcf	3,6	;RP1=0, select bank0
  2873     032A  1286               	bcf	6,5	;volatile
  2874     032B                     i1l107:	
  2875                           ;main.c: 56:     }
  2876                           
  2877                           
  2878                           ;main.c: 57:     PIR1bits.RCIF = 0;
  2879     032B  1283               	bcf	3,5	;RP0=0, select bank0
  2880     032C  1303               	bcf	3,6	;RP1=0, select bank0
  2881     032D  128C               	bcf	12,5	;volatile
  2882     032E                     i1l112:
  2883     032E  087A               	movf	??_RX_DATO+3,w
  2884     032F  00FF               	movwf	btemp+1
  2885     0330  0879               	movf	??_RX_DATO+2,w
  2886     0331  008A               	movwf	10
  2887     0332  0878               	movf	??_RX_DATO+1,w
  2888     0333  0084               	movwf	4
  2889     0334  0E77               	swapf	??_RX_DATO,w
  2890     0335  0083               	movwf	3
  2891     0336  0EFE               	swapf	btemp,f
  2892     0337  0E7E               	swapf	btemp,w
  2893     0338  0009               	retfie
  2894     0339                     __end_of_RX_DATO:
  2895                           
  2896                           	psect	intentry
  2897     0004                     __pintentry:	
  2898                           ;incstack = 0
  2899                           ; Regs used in _RX_DATO: [wreg-fsr0h+status,2+status,0+btemp+1+pclath+cstack]
  2900                           
  2901     0004                     interrupt_function:
  2902     007E                     saved_w	set	btemp
  2903     0004  00FE               	movwf	btemp
  2904     0005  0E03               	swapf	3,w
  2905     0006  00F7               	movwf	??_RX_DATO
  2906     0007  0804               	movf	4,w
  2907     0008  00F8               	movwf	??_RX_DATO+1
  2908     0009  080A               	movf	10,w
  2909     000A  00F9               	movwf	??_RX_DATO+2
  2910     000B  087F               	movf	btemp+1,w
  2911     000C  00FA               	movwf	??_RX_DATO+3
  2912     000D  2AE9               	ljmp	_RX_DATO
  2913                           
  2914                           	psect	text13
  2915     0372                     __ptext13:	
  2916 ;; *************** function _strcmp *****************
  2917 ;; Defined at:
  2918 ;;		line 3 in file "C:\Program Files\Microchip\xc8\v2.46\pic\sources\c99\common\strcmp.c"
  2919 ;; Parameters:    Size  Location     Type
  2920 ;;  l               1    wreg     PTR const unsigned char 
  2921 ;;		 -> cadena(20), 
  2922 ;;  r               1    0[COMMON] PTR const unsigned char 
  2923 ;;		 -> STR_8(17), STR_6(16), STR_4(8), STR_2(7), 
  2924 ;; Auto vars:     Size  Location     Type
  2925 ;;  l               1    4[COMMON] PTR const unsigned char 
  2926 ;;		 -> cadena(20), 
  2927 ;; Return value:  Size  Location     Type
  2928 ;;                  2    0[COMMON] int 
  2929 ;; Registers used:
  2930 ;;		wreg, fsr0l, fsr0h, status,2, status,0, btemp+1, pclath
  2931 ;; Tracked objects:
  2932 ;;		On entry : 0/0
  2933 ;;		On exit  : 0/0
  2934 ;;		Unchanged: 0/0
  2935 ;; Data sizes:     COMMON   BANK0   BANK1   BANK2
  2936 ;;      Params:         2       0       0       0
  2937 ;;      Locals:         1       0       0       0
  2938 ;;      Temps:          2       0       0       0
  2939 ;;      Totals:         5       0       0       0
  2940 ;;Total ram usage:        5 bytes
  2941 ;; Hardware stack levels used: 2
  2942 ;; This function calls:
  2943 ;;		Nothing
  2944 ;; This function is called by:
  2945 ;;		_RX_DATO
  2946 ;; This function uses a non-reentrant model
  2947 ;;
  2948                           
  2949     0372                     _strcmp:	
  2950                           ;psect for function _strcmp
  2951                           
  2952                           
  2953                           ;incstack = 0
  2954                           ; Regs used in _strcmp: [wreg-fsr0h+status,2+status,0+btemp+1+pclath]
  2955                           ;strcmp@l stored from wreg
  2956     0372  00F4               	movwf	strcmp@l
  2957     0373                     i1l1577:
  2958     0373  2B7C               	goto	i1l1583
  2959     0374                     i1l1579:
  2960     0374  3001               	movlw	1
  2961     0375  00FF               	movwf	btemp+1
  2962     0376  087F               	movf	btemp+1,w
  2963     0377  07F4               	addwf	strcmp@l,f
  2964     0378                     i1l1581:
  2965     0378  3001               	movlw	1
  2966     0379  00FF               	movwf	btemp+1
  2967     037A  087F               	movf	btemp+1,w
  2968     037B  07F0               	addwf	strcmp@r,f
  2969     037C                     i1l1583:
  2970     037C  0870               	movf	strcmp@r,w
  2971     037D  0084               	movwf	4
  2972     037E  2339               	fcall	stringdir
  2973     037F  00F2               	movwf	??_strcmp
  2974     0380  0874               	movf	strcmp@l,w
  2975     0381  0084               	movwf	4
  2976     0382  1383               	bcf	3,7	;select IRP bank0
  2977     0383  0800               	movf	0,w
  2978     0384  0672               	xorwf	??_strcmp,w
  2979     0385  1D03               	skipz
  2980     0386  2B88               	goto	u104_21
  2981     0387  2B89               	goto	u104_20
  2982     0388                     u104_21:
  2983     0388  2B90               	goto	i1l1587
  2984     0389                     u104_20:
  2985     0389                     i1l1585:
  2986     0389  0874               	movf	strcmp@l,w
  2987     038A  0084               	movwf	4
  2988     038B  0800               	movf	0,w
  2989     038C  1D03               	btfss	3,2
  2990     038D  2B8F               	goto	u105_21
  2991     038E  2B90               	goto	u105_20
  2992     038F                     u105_21:
  2993     038F  2B74               	goto	i1l1579
  2994     0390                     u105_20:
  2995     0390                     i1l1587:
  2996     0390  0870               	movf	strcmp@r,w
  2997     0391  0084               	movwf	4
  2998     0392  2339               	fcall	stringdir
  2999     0393  00F2               	movwf	??_strcmp
  3000     0394  0874               	movf	strcmp@l,w
  3001     0395  0084               	movwf	4
  3002     0396  0800               	movf	0,w
  3003     0397  00F3               	movwf	??_strcmp+1
  3004     0398  0872               	movf	??_strcmp,w
  3005     0399  0273               	subwf	??_strcmp+1,w
  3006     039A  00F0               	movwf	?_strcmp
  3007     039B  01F1               	clrf	?_strcmp+1
  3008     039C  1C03               	skipc
  3009     039D  03F1               	decf	?_strcmp+1,f
  3010     039E                     i1l933:
  3011     039E  0008               	return
  3012     039F                     __end_of_strcmp:
  3013                           
  3014                           	psect	text14
  3015     039F                     __ptext14:	
  3016 ;; *************** function _Uart_Read_String *****************
  3017 ;; Defined at:
  3018 ;;		line 58 in file "RS-232.c"
  3019 ;; Parameters:    Size  Location     Type
  3020 ;;  Buf             1    wreg     PTR unsigned char 
  3021 ;;		 -> cadena(20), 
  3022 ;;  s_buf           2    0[COMMON] unsigned int 
  3023 ;; Auto vars:     Size  Location     Type
  3024 ;;  Buf             1    4[COMMON] PTR unsigned char 
  3025 ;;		 -> cadena(20), 
  3026 ;;  cont_buf        2    5[COMMON] unsigned int 
  3027 ;;  c               1    3[COMMON] unsigned char 
  3028 ;; Return value:  Size  Location     Type
  3029 ;;                  1    wreg      void 
  3030 ;; Registers used:
  3031 ;;		wreg, fsr0l, fsr0h, status,2, status,0, pclath, cstack
  3032 ;; Tracked objects:
  3033 ;;		On entry : 0/0
  3034 ;;		On exit  : 0/0
  3035 ;;		Unchanged: 0/0
  3036 ;; Data sizes:     COMMON   BANK0   BANK1   BANK2
  3037 ;;      Params:         2       0       0       0
  3038 ;;      Locals:         4       0       0       0
  3039 ;;      Temps:          1       0       0       0
  3040 ;;      Totals:         7       0       0       0
  3041 ;;Total ram usage:        7 bytes
  3042 ;; Hardware stack levels used: 1
  3043 ;; Hardware stack levels required when called: 1
  3044 ;; This function calls:
  3045 ;;		_Uart_Read
  3046 ;; This function is called by:
  3047 ;;		_RX_DATO
  3048 ;; This function uses a non-reentrant model
  3049 ;;
  3050                           
  3051     039F                     _Uart_Read_String:	
  3052                           ;psect for function _Uart_Read_String
  3053                           
  3054                           
  3055                           ;incstack = 0
  3056                           ; Regs used in _Uart_Read_String: [wreg-fsr0h+status,2+status,0+pclath+cstack]
  3057                           ;Uart_Read_String@Buf stored from wreg
  3058     039F  00F4               	movwf	Uart_Read_String@Buf
  3059     03A0                     i1l1559:
  3060                           
  3061                           ;RS-232.c: 58: void Uart_Read_String(char* Buf, unsigned int s_buf);RS-232.c: 59: {;RS-2
      +                          32.c: 60:     unsigned int cont_buf = 0;
  3062     03A0  01F5               	clrf	Uart_Read_String@cont_buf
  3063     03A1  01F6               	clrf	Uart_Read_String@cont_buf+1
  3064     03A2                     i1l1561:
  3065                           
  3066                           ;RS-232.c: 63:     {;RS-232.c: 64:         c = Uart_Read();
  3067     03A2  2456               	fcall	_Uart_Read
  3068     03A3  00F3               	movwf	Uart_Read_String@c
  3069     03A4                     i1l1563:
  3070                           
  3071                           ;RS-232.c: 65:         Buf[cont_buf++] = c;
  3072     03A4  0875               	movf	Uart_Read_String@cont_buf,w
  3073     03A5  0774               	addwf	Uart_Read_String@Buf,w
  3074     03A6  00F2               	movwf	??_Uart_Read_String
  3075     03A7  0872               	movf	??_Uart_Read_String,w
  3076     03A8  0084               	movwf	4
  3077     03A9  0873               	movf	Uart_Read_String@c,w
  3078     03AA  1383               	bcf	3,7	;select IRP bank0
  3079     03AB  0080               	movwf	0
  3080     03AC                     i1l1565:
  3081     03AC  3001               	movlw	1
  3082     03AD  07F5               	addwf	Uart_Read_String@cont_buf,f
  3083     03AE  1803               	skipnc
  3084     03AF  0AF6               	incf	Uart_Read_String@cont_buf+1,f
  3085     03B0  3000               	movlw	0
  3086     03B1  07F6               	addwf	Uart_Read_String@cont_buf+1,f
  3087     03B2                     i1l1567:
  3088                           
  3089                           ;RS-232.c: 66:         if(cont_buf >= s_buf) break;
  3090     03B2  0871               	movf	Uart_Read_String@s_buf+1,w
  3091     03B3  0276               	subwf	Uart_Read_String@cont_buf+1,w
  3092     03B4  1D03               	skipz
  3093     03B5  2BB8               	goto	u102_25
  3094     03B6  0870               	movf	Uart_Read_String@s_buf,w
  3095     03B7  0275               	subwf	Uart_Read_String@cont_buf,w
  3096     03B8                     u102_25:
  3097     03B8  1C03               	skipc
  3098     03B9  2BBB               	goto	u102_21
  3099     03BA  2BBC               	goto	u102_20
  3100     03BB                     u102_21:
  3101     03BB  2BBD               	goto	i1l1571
  3102     03BC                     u102_20:
  3103     03BC  2BC3               	goto	i1l1573
  3104     03BD                     i1l1571:
  3105                           
  3106                           ;RS-232.c: 67:     }while(c != '\n');
  3107     03BD  300A               	movlw	10
  3108     03BE  0673               	xorwf	Uart_Read_String@c,w
  3109     03BF  1D03               	btfss	3,2
  3110     03C0  2BC2               	goto	u103_21
  3111     03C1  2BC3               	goto	u103_20
  3112     03C2                     u103_21:
  3113     03C2  2BA2               	goto	i1l1561
  3114     03C3                     u103_20:
  3115     03C3                     i1l1573:
  3116                           
  3117                           ;RS-232.c: 68:     Buf[cont_buf-2] = '\0';
  3118     03C3  0875               	movf	Uart_Read_String@cont_buf,w
  3119     03C4  0774               	addwf	Uart_Read_String@Buf,w
  3120     03C5  00F2               	movwf	??_Uart_Read_String
  3121     03C6  0872               	movf	??_Uart_Read_String,w
  3122     03C7  3EFE               	addlw	254
  3123     03C8  0084               	movwf	4
  3124     03C9  0180               	clrf	0
  3125     03CA                     i1l1575:
  3126     03CA                     i1l235:
  3127     03CA  0008               	return
  3128     03CB                     __end_of_Uart_Read_String:
  3129                           
  3130                           	psect	text15
  3131     0456                     __ptext15:	
  3132 ;; *************** function _Uart_Read *****************
  3133 ;; Defined at:
  3134 ;;		line 46 in file "RS-232.c"
  3135 ;; Parameters:    Size  Location     Type
  3136 ;;		None
  3137 ;; Auto vars:     Size  Location     Type
  3138 ;;		None
  3139 ;; Return value:  Size  Location     Type
  3140 ;;                  1    wreg      unsigned char 
  3141 ;; Registers used:
  3142 ;;		wreg
  3143 ;; Tracked objects:
  3144 ;;		On entry : 0/0
  3145 ;;		On exit  : 0/0
  3146 ;;		Unchanged: 0/0
  3147 ;; Data sizes:     COMMON   BANK0   BANK1   BANK2
  3148 ;;      Params:         0       0       0       0
  3149 ;;      Locals:         0       0       0       0
  3150 ;;      Temps:          0       0       0       0
  3151 ;;      Totals:         0       0       0       0
  3152 ;;Total ram usage:        0 bytes
  3153 ;; Hardware stack levels used: 1
  3154 ;; This function calls:
  3155 ;;		Nothing
  3156 ;; This function is called by:
  3157 ;;		_Uart_Read_String
  3158 ;; This function uses a non-reentrant model
  3159 ;;
  3160                           
  3161     0456                     _Uart_Read:	
  3162                           ;psect for function _Uart_Read
  3163                           
  3164     0456                     i1l941:	
  3165                           ;incstack = 0
  3166                           ; Regs used in _Uart_Read: [wreg]
  3167                           
  3168     0456                     i1l225:	
  3169                           ;RS-232.c: 48:     while(PIR1bits.RCIF == 0);
  3170                           
  3171     0456  1283               	bcf	3,5	;RP0=0, select bank0
  3172     0457  1303               	bcf	3,6	;RP1=0, select bank0
  3173     0458  1E8C               	btfss	12,5	;volatile
  3174     0459  2C5B               	goto	u3_21
  3175     045A  2C5C               	goto	u3_20
  3176     045B                     u3_21:
  3177     045B  2C56               	goto	i1l225
  3178     045C                     u3_20:
  3179     045C                     i1l227:
  3180                           
  3181                           ;RS-232.c: 49:     if(RCSTAbits.OERR == 1)
  3182     045C  1C98               	btfss	24,1	;volatile
  3183     045D  2C5F               	goto	u4_21
  3184     045E  2C60               	goto	u4_20
  3185     045F                     u4_21:
  3186     045F  2C62               	goto	i1l228
  3187     0460                     u4_20:
  3188     0460                     i1l943:
  3189                           
  3190                           ;RS-232.c: 50:     {;RS-232.c: 51:         RCSTAbits.CREN = 0;
  3191     0460  1218               	bcf	24,4	;volatile
  3192                           
  3193                           ;RS-232.c: 52:         RCSTAbits.CREN = 1;
  3194     0461  1618               	bsf	24,4	;volatile
  3195     0462                     i1l228:	
  3196                           ;RS-232.c: 53:     }
  3197                           
  3198                           
  3199                           ;RS-232.c: 54:     PIR1bits.RCIF = 0;
  3200     0462  128C               	bcf	12,5	;volatile
  3201     0463                     i1l945:
  3202                           
  3203                           ;RS-232.c: 55:     return RCREG;
  3204     0463  081A               	movf	26,w	;volatile
  3205     0464                     i1l229:
  3206     0464  0008               	return
  3207     0465                     __end_of_Uart_Read:
  3208     007E                     btemp	set	126	;btemp
  3209     007E                     wtemp0	set	126
  3210                           
  3211                           	psect	idloc
  3212                           
  3213                           ;Config register IDLOC0 @ 0x2000
  3214                           ;	unspecified, using default values
  3215     2000                     	org	8192
  3216     2000  3FFF               	dw	16383
  3217                           
  3218                           ;Config register IDLOC1 @ 0x2001
  3219                           ;	unspecified, using default values
  3220     2001                     	org	8193
  3221     2001  3FFF               	dw	16383
  3222                           
  3223                           ;Config register IDLOC2 @ 0x2002
  3224                           ;	unspecified, using default values
  3225     2002                     	org	8194
  3226     2002  3FFF               	dw	16383
  3227                           
  3228                           ;Config register IDLOC3 @ 0x2003
  3229                           ;	unspecified, using default values
  3230     2003                     	org	8195
  3231     2003  3FFF               	dw	16383
  3232                           
  3233                           	psect	config
  3234                           
  3235                           ;Config register CONFIG @ 0x2007
  3236                           ;	Oscillator Selection bits
  3237                           ;	FOSC = INTOSCIO, INTOSC oscillator: I/O function on RA6/OSC2/CLKOUT pin, I/O function 
      +                          on RA7/OSC1/CLKIN
  3238                           ;	Watchdog Timer Enable bit
  3239                           ;	WDTE = OFF, WDT disabled
  3240                           ;	Power-up Timer Enable bit
  3241                           ;	PWRTE = ON, PWRT enabled
  3242                           ;	RA5/MCLR/VPP Pin Function Select bit
  3243                           ;	MCLRE = ON, RA5/MCLR/VPP pin function is MCLR
  3244                           ;	Brown-out Detect Enable bit
  3245                           ;	BOREN = ON, BOD enabled
  3246                           ;	Low-Voltage Programming Enable bit
  3247                           ;	LVP = OFF, RB4/PGM pin has digital I/O function, HV on MCLR must be used for programmi
      +                          ng
  3248                           ;	Data EE Memory Code Protection bit
  3249                           ;	CPD = OFF, Data memory code protection off
  3250                           ;	Flash Program Memory Code Protection bit
  3251                           ;	CP = OFF, Code protection off
  3252     2007                     	org	8199
  3253     2007  3F70               	dw	16240

Data Sizes:
    Strings     51
    Constant    0
    Data        1
    BSS         52
    Persistent  0
    Stack       0

Auto Spaces:
    Space          Size  Autos    Used
    COMMON           14     11      14
    BANK0            80     14      64
    BANK1            80      0       0
    BANK2            48      0       0

Pointer List with Targets:

    strcmp@l	PTR const unsigned char  size(1) Largest target is 20
		 -> cadena(BANK0[20]), 

    strcmp@r	PTR const unsigned char  size(1) Largest target is 17
		 -> STR_2(CODE[7]), STR_4(CODE[8]), STR_6(CODE[16]), STR_8(CODE[17]), 

    Uart_Read_String@Buf	PTR unsigned char  size(1) Largest target is 20
		 -> cadena(BANK0[20]), 

    Uart_Send_String@INFO	PTR unsigned char  size(1) Largest target is 3
		 -> STR_10(CODE[3]), STR_9(CODE[3]), 


Critical Paths under _main in COMMON

    None.

Critical Paths under _RX_DATO in COMMON

    _RX_DATO->_Uart_Read_String

Critical Paths under _main in BANK0

    _main->_CONVERTIDOR__HEX_ASCII
    _Uart_Send_String->_Uart_Send_Char
    _DHT11_READ_CLOCK->_DHT11_Inicio
    _DHT11_READ_CLOCK->_DHT11_READ
    _CONVERTIDOR__HEX_ASCII->___awdiv

Critical Paths under _RX_DATO in BANK0

    None.

Critical Paths under _main in BANK1

    None.

Critical Paths under _RX_DATO in BANK1

    None.

Critical Paths under _main in BANK2

    None.

Critical Paths under _RX_DATO in BANK2

    None.

Call Graph Tables:

 ---------------------------------------------------------------------------------
 (Depth) Function   	        Calls       Base Space   Used Autos Params    Refs
 ---------------------------------------------------------------------------------
 (0) _main                                                 3     3      0    1482
                                             11 BANK0      3     3      0
             _CONVERTIDOR__HEX_ASCII
                   _DHT11_READ_CLOCK
                          _Uart_Init
                     _Uart_Send_Char
                   _Uart_Send_String
 ---------------------------------------------------------------------------------
 (1) _Uart_Send_String                                     2     2      0     178
                                              1 BANK0      2     2      0
                     _Uart_Send_Char
 ---------------------------------------------------------------------------------
 (2) _Uart_Send_Char                                       1     1      0      22
                                              0 BANK0      1     1      0
 ---------------------------------------------------------------------------------
 (1) _Uart_Init                                            2     0      2      98
                                              0 BANK0      2     0      2
 ---------------------------------------------------------------------------------
 (1) _DHT11_READ_CLOCK                                     0     0      0     346
                       _DHT11_Inicio
                         _DHT11_READ
                    _DHT11_READ_STAR
                          _DHT11_Res
 ---------------------------------------------------------------------------------
 (2) _DHT11_Res                                            0     0      0       0
 ---------------------------------------------------------------------------------
 (2) _DHT11_READ                                           2     2      0     346
                                              0 BANK0      2     2      0
                    _DHT11_READ_STAR
 ---------------------------------------------------------------------------------
 (2) _DHT11_READ_STAR                                      0     0      0       0
 ---------------------------------------------------------------------------------
 (2) _DHT11_Inicio                                         2     2      0       0
                                              0 BANK0      2     2      0
 ---------------------------------------------------------------------------------
 (1) _CONVERTIDOR__HEX_ASCII                               3     3      0     838
                                              8 BANK0      3     3      0
                            ___awdiv
                             ___bmul
 ---------------------------------------------------------------------------------
 (2) ___bmul                                               3     2      1     168
                                              0 BANK0      3     2      1
 ---------------------------------------------------------------------------------
 (2) ___awdiv                                              8     4      4     604
                                              0 BANK0      8     4      4
 ---------------------------------------------------------------------------------
 Estimated maximum stack depth 2
 ---------------------------------------------------------------------------------
 (Depth) Function   	        Calls       Base Space   Used Autos Params    Refs
 ---------------------------------------------------------------------------------
 (4) _RX_DATO                                              4     4      0     837
                                              7 COMMON     4     4      0
                   _Uart_Read_String
                             _strcmp
 ---------------------------------------------------------------------------------
 (6) _strcmp                                               5     3      2     548
                                              0 COMMON     5     3      2
 ---------------------------------------------------------------------------------
 (5) _Uart_Read_String                                     7     5      2     289
                                              0 COMMON     7     5      2
                          _Uart_Read
 ---------------------------------------------------------------------------------
 (6) _Uart_Read                                            0     0      0       0
 ---------------------------------------------------------------------------------
 Estimated maximum stack depth 6
 ---------------------------------------------------------------------------------

 Call Graph Graphs:

 _main (ROOT)
   _CONVERTIDOR__HEX_ASCII
     ___awdiv
     ___bmul
   _DHT11_READ_CLOCK
     _DHT11_Inicio
     _DHT11_READ
       _DHT11_READ_STAR
     _DHT11_READ_STAR
     _DHT11_Res
   _Uart_Init
   _Uart_Send_Char
   _Uart_Send_String
     _Uart_Send_Char

 _RX_DATO (ROOT)
   _Uart_Read_String
     _Uart_Read
   _strcmp

 Address spaces:
Name               Size   Autos  Total    Cost      Usage
SFR3                 0      0       0       4        0.0%
BITSFR3              0      0       0       4        0.0%
BANK2               30      0       0       9        0.0%
BITBANK2            30      0       0       8        0.0%
SFR2                 0      0       0       5        0.0%
BITSFR2              0      0       0       5        0.0%
BANK1               50      0       0       7        0.0%
BITBANK1            50      0       0       6        0.0%
SFR1                 0      0       0       2        0.0%
BITSFR1              0      0       0       2        0.0%
BANK0               50      E      40       3       80.0%
BITBANK0            50      0       0       5        0.0%
SFR0                 0      0       0       1        0.0%
BITSFR0              0      0       0       1        0.0%
COMMON               E      B       E       1      100.0%
BITCOMMON            E      0       0       0        0.0%
CODE                 0      0       0       0        0.0%
DATA                 0      0      4E      10        0.0%
ABS                  0      0      4E       4        0.0%
NULL                 0      0       0       0        0.0%
STACK                0      0       0       2        0.0%
EEDATA              80      0       0       0        0.0%


Microchip Technology PIC Macro Assembler V2.46 build 20240104201356 
Symbol Table                                                                                   Sun Oct 13 18:47:45 2024

                ?_DHT11_READ_CLOCK 0070                                  _B 0023  
                                _C 0022                                  _P 005F  
                                _X 0050                                  _i 003B  
                                pc 0002                  ??_DHT11_READ_STAR 0051  
                   ___bmul@product 0052                 ??_DHT11_READ_CLOCK 0053  
                               _H1 003A                                 _H2 0037  
                               _T1 0039                                 _T2 0038  
                     ___awdiv@sign 0056                                 fsr 0004  
                              l210 040B                                l213 0468  
                              l222 0425                                l312 0439  
                              l216 0472                                l321 0479  
                              l330 048C                                l315 043E  
                              l340 0055                                l324 047D  
                              l333 002D                                l350 009B  
                              l318 0473                                l327 0486  
                              l335 0032                                l360 00E1  
                              l345 0078                                l370 0127  
                              l355 00BE                                l373 012E  
                              l365 0104                                l622 02E8  
                              l383 027F                                l376 03EE  
                              l495 0455                                u610 048C  
                              u611 048B                                u700 004F  
                              u620 046E                                u701 004E  
                              u621 046D                                u630 043E  
                              u710 0059                                u631 043D  
                              u711 0058                                u800 00C2  
                              u720 0067                                u640 0479  
                              u801 00C1                                u721 0066  
                              u641 0478                                u810 00D0  
                              u730 0072                                u650 047D  
                              u811 00CF                                u731 0071  
                              u651 047C                                u900 0447  
                              u820 00DB                                u740 007C  
                              u660 002B                                u901 0446  
                              u821 00DA                                u741 007B  
                              u661 002A                                u910 0454  
                              u830 00E5                                u750 008A  
                              u670 0031                                u911 0453  
                              u831 00E4                                u751 0089  
                              u671 0030                                u920 0287  
                              u840 00F3                                u760 0095  
                              u680 0036                                u921 0286  
                              u841 00F2                                u761 0094  
                              u681 0035                                u930 0292  
                              u850 00FE                                u770 009F  
                              u690 0044                                u931 0291  
                              u851 00FD                                u771 009E  
                              u691 0043                                u940 02A3  
                              u860 0108                                u780 00AD  
                              u941 02A2                                u861 0107  
                              u781 00AC                                u870 0116  
                              u790 00B8                                u871 0115  
                              u791 00B7                                u960 02B5  
                              u880 0121                                u961 02B4  
                              u881 0120                                u890 012B  
                              u955 02A7                                u891 012A  
                              u980 02C6                                u981 02C5  
                              u975 02B6                                u985 02C2  
                              u995 02CE                                fsr0 0004  
                              indf 0000                               l1401 003E  
                             l1411 0059                               l1403 0044  
                             l1501 0443                               l1421 0072  
                             l1413 005A                               l1405 004B  
                             l1511 0454                               l1503 0447  
                             l1431 008A                               l1423 0076  
                             l1415 0061                               l1407 004F  
                             l1521 028C                               l1505 044B  
                             l1441 00A0                               l1433 0091  
                             l1425 007C                               l1417 0067  
                             l1409 0053                               l1601 03D2  
                             l1531 029D                               l1523 028E  
                             l1515 0280                               l1507 044D  
                             l1451 00BC                               l1443 00A7  
                             l1435 0095                               l1427 007D  
                             l1419 006E                               l1611 03DE  
                             l1603 03D3                               l1541 02B5  
                             l1533 02A3                               l1525 0292  
                             l1517 0283                               l1509 044F  
                             l1621 0205                               l1381 0426  
                             l1461 00D7                               l1453 00C2  
                             l1445 00AD                               l1437 0099  
                             l1429 0084                               l1613 03E2  
                             l1605 03D4                               l1701 0137  
                             l1543 02C6                               l1535 02A6  
                             l1551 02DA                               l1527 0297  
                             l1519 0287                               l1631 0231  
                             l1623 020B                               l1383 042C  
                             l1375 0486                               l1471 00ED  
                             l1463 00DB                               l1455 00C3  
                             l1447 00B4                               l1439 009F  
                             l1391 0025                               l1615 03E4  
                             l1607 03D8                               l1711 013F  
                             l1703 0138                               l1553 02DF  
                             l1545 02CC                               l1537 02AD  
                             l1529 029B                               l1641 0249  
                             l1633 0233                               l1625 021B  
                             l1385 0436                               l1481 0108  
                             l1473 00F3                               l1465 00DF  
                             l1457 00CA                               l1449 00B8  
                             l1393 002B                               l1617 03E8  
                             l1609 03DC                               l1377 0468  
                             l1801 01EB                               l1721 014C  
                             l1713 0140                               l1705 013A  
                             l1555 02E4                               l1547 02CD  
                             l1539 02B1                               l1651 0265  
                             l1643 024F                               l1635 023D  
                             l1627 021D                               l1491 0121  
                             l1483 0109                               l1475 00FA  
                             l1467 00E5                               l1459 00D0  
                             l1395 0031                               l1387 0473  
                             l1619 03EA                               l1379 046E  
                             l1803 01EF                               l1731 0161  
                             l1723 014D                               l1715 0147  
                             l1707 013D                               l1549 02D4  
                             l1661 0278                               l1653 0269  
                             l1645 0258                               l1637 023F  
                             l1629 0221                               l1493 0125  
                             l1485 0110                               l1477 00FE  
                             l1469 00E6                               l1397 0036  
                             l1389 001E                               l1805 01F1  
                             l1741 0176                               l1733 0162  
                             l1725 015C                               l1717 014A  
                             l1709 013E                               l1663 027C  
                             l1655 026B                               l1647 025E  
                             l1639 0243                               l1495 012B  
                             l1487 0116                               l1479 0102  
                             l1399 0037                               l1591 03EF  
                             l1671 0416                               l1751 018B  
                             l1743 0177                               l1735 0171  
                             l1727 015F                               l1719 014B  
                             l1665 027D                               l1649 0263  
                             l1657 026D                               l1497 012D  
                             l1489 011D                               l1593 03FA  
                             l1673 041C                               l1761 01A0  
                             l1753 018C                               l1745 0186  
                             l1737 0174                               l1729 0160  
                             l1499 0442                               l1659 0273  
                             l1595 0407                               l1667 040F  
                             l1771 01B8                               l1763 01A1  
                             l1755 019B                               l1747 0189  
                             l1739 0175                               l1597 03CB  
                             l1669 0411                               l1781 01C7  
                             l1773 01B9                               l1765 01B0  
                             l1757 019E                               l1749 018A  
                             l1599 03D1                               l1791 01D9  
                             l1783 01CB                               l1775 01BD  
                             l1767 01B4                               l1759 019F  
                             l1695 012F                               l1793 01DD  
                             l1785 01CF                               l1777 01C1  
                             l1769 01B6                               l1697 0132  
                             l1795 01E1                               l1787 01D3  
                             l1779 01C5                               l1699 0134  
                             l1797 01E3                               l1789 01D5  
                             l1799 01E7                               STR_1 0368  
                             STR_2 0368                               STR_3 0360  
                             STR_4 0360                               STR_5 0350  
                             _DATO 0028                               STR_6 0350  
                             STR_7 033F                               STR_8 033F  
                             STR_9 036F                               u1000 02DA  
                             u1001 02D9                               u1010 02DF  
                             u1011 02DE                               u1100 0263  
                             u1101 0262                               u1110 0273  
                             u1111 0272                               u1120 0278  
                             u1121 0277                               u1130 0425  
                             u1131 0424                               u1060 03FA  
                             u1061 03F9                               u1070 023D  
                             u1071 023C                               u1207 016A  
                             u1080 024F                               u1081 024E  
                             u1217 017F                               u1090 025E  
                             u1091 025D                               u1307 00C7  
                             u1227 0194                               u1317 00EA  
                             u1237 01A9                               u1327 010D  
                             u1247 01F9                               u1337 0432  
                             u1257 0022                               u1267 003B  
                             u1277 005E                               u1197 0155  
                             u1287 0081                               u1297 00A4  
         __end_of_Uart_Read_String 03CB                               _TEMP 0020  
                             u3_20 045C                               u3_21 045B  
                             u4_20 0460                               u4_21 045F  
                             _bit0 007C                               _bit1 007B  
                             _bit2 0035                               _bit3 0034  
                             _bit4 0033                               _bit5 0032  
                             _bit6 0031                               _bit7 0030  
                             _main 012F                               btemp 007E  
                  __end_of_RX_DATO 0339                               start 000E  
                ___bmul@multiplier 0053                              ?_main 0070  
                  __end_of___awdiv 02E9                              STR_10 036F  
                            _DHT11 0036                              _CMCON 001F  
                  ___awdiv@divisor 0051                              i1l112 032E  
                            i1l107 032B                              i1l225 0456  
                            i1l227 045C                              i1l235 03CA  
                            i1l228 0462                              i1l229 0464  
                            i1l941 0456                              i1l933 039E  
                            i1l943 0460                              i1l945 0463  
                  ___awdiv@counter 0055                              _RCREG 001A  
            Uart_Read_String@s_buf 0070                              _SPBRG 0099  
                            _PORTA 0005                              _PORTB 0006  
                            _TRISA 0085                              _TRISB 0086  
                            _TXREG 0019                              pclath 000A  
                __end_of_DHT11_Res 047E           __end_of_Uart_Send_String 0426  
                            status 0003                              wtemp0 007E  
                  __initialization 000F                       __end_of_main 0202  
                           ??_main 005C                       _DHT11_Inicio 0426  
                 ___awdiv@dividend 0053                          ??_RX_DATO 0077  
                           u102_20 03BC                             u102_21 03BB  
                           u102_25 03B8                             u103_20 03C3  
                           u103_21 03C2                             u104_20 0389  
                           u104_21 0388                             u105_20 0390  
                           i1l1561 03A2                             u105_21 038F  
                           i1l1571 03BD                             i1l1563 03A4  
                           i1l1573 03C3                             i1l1565 03AC  
                           i1l1581 0378                             i1l1575 03CA  
                           i1l1567 03B2                             i1l1559 03A0  
                           i1l1583 037C                             u114_20 02EF  
                           i1l1585 0389                             i1l1577 0373  
                           i1l1681 02FF                             u114_21 02EE  
                           i1l1587 0390                             i1l1579 0374  
                           i1l1691 031E                             i1l1683 0303  
                           i1l1675 02E9                             i1l1693 0328  
                           i1l1685 030D                             i1l1677 02EF  
                           i1l1687 0311                             i1l1679 02F5  
                           u115_20 02FF                             i1l1689 031B  
                           u115_21 02FE                             u116_20 030D  
                           u116_21 030C                             u117_20 031B  
                           u117_21 031A                             u118_20 0328  
                           u118_21 0327                             _RXDATO 0021  
                     ??_DHT11_READ 0051                             ___bmul 043F  
                           _cadena 003C                          ??___awdiv 0055  
                           _decena 0026                   ___awdiv@quotient 0057  
                   _Uart_Send_Char 0465                             _unidad 0027  
                           _strcmp 0372                 __end_of_DHT11_READ 012F  
                           saved_w 007E            __end_of__initialization 0019  
                  _DHT11_READ_STAR 0486                ___bmul@multiplicand 0051  
                   __pcstackCOMMON 0070                Uart_Read_String@Buf 0074  
                     __pidataBANK0 048D             __end_of_Uart_Send_Char 0473  
                   _OPTION_REGbits 0081                         __pbssBANK0 0020  
                ?_Uart_Read_String 0070                  __end_of_Uart_Init 040C  
                __end_of_Uart_Read 0465                 ??_Uart_Read_String 0072  
                       __pmaintext 012F                            ?___bmul 0051  
                       __pintentry 0004                    ?_Uart_Send_Char 0070  
                          ?_strcmp 0070            __end_of_DHT11_READ_STAR 048D  
                       __stringtab 0339                            _RX_DATO 02E9  
                ?_Uart_Send_String 0070                 ??_Uart_Send_String 0052  
                        _DHT11_Res 0473                            ___awdiv 0280  
                          _centena 0025                            __ptext1 040C  
                          __ptext2 0465                            __ptext3 03EF  
                          __ptext4 03CB                            __ptext5 0473  
                          __ptext6 001B                            __ptext7 0486  
                          __ptext8 0426                            __ptext9 0202  
         ??_CONVERTIDOR__HEX_ASCII 0059                            _unidadM 0024  
                          clrloop0 047F               end_of_initialization 0019  
                       ?_DHT11_Res 0070                          _RCSTAbits 0018  
                          strcmp@l 0074                            strcmp@r 0070  
                        _PORTAbits 0005                          _PORTBbits 0006  
                 _DHT11_READ_CLOCK 03CB                          _TRISBbits 0086  
                 ?_DHT11_READ_STAR 0070                          _TXSTAbits 0098  
                   __end_of___bmul 0456                     __end_of_strcmp 039F  
              start_initialization 000F                  Uart_Read_String@c 0073  
               Uart_Send_Char@INFO 0051                   ??_Uart_Send_Char 0051  
                      ??_DHT11_Res 0051                          _Uart_Init 03EF  
                        _Uart_Read 0456                           ??___bmul 0052  
                      __pdataBANK0 005F                           ??_strcmp 0072  
                      __pbssCOMMON 007B                          ___latbits 0000  
                    __pcstackBANK0 0051                           ?_RX_DATO 0070  
           _CONVERTIDOR__HEX_ASCII 0202                 DHT11_READ@variable 0052  
                       ?_Uart_Init 0051                         ?_Uart_Read 0070  
                         ?___awdiv 0051                          __pstrings 0339  
                    ?_DHT11_Inicio 0070                           _DATO_LSB 002E  
                         _DATO_MSB 002D                   Uart_Init@baudios 0051  
                interrupt_function 0004                          clear_ram0 047E  
         Uart_Read_String@cont_buf 0075                           _PIE1bits 008C  
                         _PIR1bits 000C           __end_of_DHT11_READ_CLOCK 03EF  
                        _variable2 007D                        __stringbase 033E  
                   ??_DHT11_Inicio 0051                         _DHT11_READ 001B  
                      ??_Uart_Init 0053                        ??_Uart_Read 0070  
                       _DATO_LSB_1 002A                         _DATO_LSB_2 0029  
                       _DATO_MSB_1 002C                         _DATO_MSB_2 002B  
                 _Uart_Read_String 039F                 __end_of__stringtab 033F  
                         __ptext10 043F                           __ptext11 0280  
                         __ptext12 02E9                           __ptext13 0372  
                         __ptext14 039F                           __ptext15 0456  
             Uart_Send_String@INFO 0053                  Uart_Send_String@W 0052  
                         _variable 002F                   _Uart_Send_String 040C  
CONVERTIDOR__HEX_ASCII@CONVER_DATO 005B                         _INTCONbits 000B  
          ?_CONVERTIDOR__HEX_ASCII 0070                           intlevel1 0000  
                      ?_DHT11_READ 0070                          stringcode 0339  
             __end_of_DHT11_Inicio 043F                           stringdir 0339  
                         stringtab 0339     __end_of_CONVERTIDOR__HEX_ASCII 0280  
